(dp0
S'urn:miriam:phylomedb'
p1
(lp2
(dp3
S'id'
p4
S'MIR:00100282'
p5
sS'dataEntry'
p6
S'http://phylomedb.org/?seqid=$id'
p7
sasS'urn:miriam:mint'
p8
(lp9
(dp10
g4
S'MIR:00100070'
p11
sg6
S'http://mint.bio.uniroma2.it/mint/search/inFrameInteraction.do?interactionAc=$id'
p12
sa(dp13
g4
S'MIR:00100654'
p14
sg6
S'http://www.ebi.ac.uk/intact/query/interaction_id:$id'
p15
sasS'urn:miriam:gabi'
p16
(lp17
(dp18
g4
S'MIR:00100210'
p19
sg6
S'http://gabi.rzpd.de/database/cgi-bin/GreenCards.pl.cgi?BioObjectId=$id&Mode=ShowBioObject'
p20
sasS'urn:miriam:jcggdb'
p21
(lp22
(dp23
g4
S'MIR:00100614'
p24
sg6
S'http://jcggdb.jp/idb/jcggdb/$id'
p25
sasS'urn:miriam:wikipedia.en'
p26
(lp27
(dp28
g4
S'MIR:00100495'
p29
sg6
S'http://en.wikipedia.org/wiki/$id'
p30
sa(dp31
g4
S'MIR:00100496'
p32
sg6
S'http://dbpedia.org/page/$id'
p33
sasS'urn:miriam:pazar'
p34
(lp35
(dp36
g4
S'MIR:00100388'
p37
sg6
S'http://www.pazar.info/cgi-bin/tf_search.cgi?geneID=$id'
p38
sasS'urn:miriam:obo.obi'
p39
(lp40
(dp41
g4
S'MIR:00100161'
p42
sg6
S'http://ashby.csail.mit.edu/cgi-bin/obiterm?ref=$id'
p43
sa(dp44
g4
S'MIR:00100162'
p45
sg6
S'http://purl.obolibrary.org/obo/$id'
p46
sa(dp47
g4
S'MIR:00100177'
p48
sg6
S'http://purl.bioontology.org/ontology/OBI/obo:$id'
p49
sasS'urn:miriam:topdb'
p50
(lp51
(dp52
g4
S'MIR:00100644'
p53
sg6
S'http://topdb.enzim.hu/?m=show&id=$id'
p54
sasS'urn:miriam:bacmap.biog'
p55
(lp56
(dp57
g4
S'MIR:00100459'
p58
sg6
S'http://bacmap.wishartlab.com/organisms/$id'
p59
sasS'urn:miriam:biocyc'
p60
(lp61
(dp62
g4
S'MIR:00100251'
p63
sg6
S'http://biocyc.org/getid?id=$id'
p64
sasS'urn:miriam:dip'
p65
(lp66
(dp67
g4
S'MIR:00100072'
p68
sg6
S'http://dip.doe-mbi.ucla.edu/dip/DIPview.cgi?ID=$id'
p69
sasS'urn:miriam:obo.go'
p70
(lp71
(dp72
g4
S'MIR:00100012'
p73
sg6
S'http://www.ebi.ac.uk/QuickGO/GTerm?id=$id'
p74
sa(dp75
g4
S'MIR:00100013'
p76
sg6
S'http://amigo.geneontology.org/cgi-bin/amigo/term_details?term=$id'
p77
sa(dp78
g4
S'MIR:00100014'
p79
sg6
S'http://www.bioinf.ebc.ee/EP/EP/GO/?Q=$id'
p80
sa(dp81
g4
S'MIR:00100015'
p82
sg6
S'http://www.informatics.jax.org/searches/GO.cgi?id=$id'
p83
sa(dp84
g4
S'MIR:00100237'
p85
sg6
S'http://purl.bioontology.org/ontology/GO/$id'
p86
sa(dp87
g4
S'MIR:00100585'
p88
sg6
S'http://www.pantherdb.org/panther/category.do?categoryAcc=$id'
p89
sa(dp90
g4
S'MIR:00100659'
p91
sg6
S'http://amigo2.berkeleybop.org/cgi-bin/amigo2/amigo/term/$id'
p92
sa(dp93
g4
S'MIR:00100675'
p94
sg6
S'http://www.ebi.ac.uk/ontology-lookup/?termId=$id'
p95
sasS'urn:miriam:glida.gpcr'
p96
(lp97
(dp98
g4
S'MIR:00100634'
p99
sg6
S'http://pharminfo.pharm.kyoto-u.ac.jp/services/glida/gpcr_information.php?id=$id'
p100
sasS'urn:miriam:zfin'
p101
(lp102
(dp103
g4
S'MIR:00100110'
p104
sg6
S'http://zfin.org/action/marker/view/$id'
p105
sasS'urn:miriam:glida.ligand'
p106
(lp107
(dp108
g4
S'MIR:00100635'
p109
sg6
S'http://pharminfo.pharm.kyoto-u.ac.jp/services/glida/ligand_information.php?id=$id'
p110
sasS'urn:miriam:obo.psi-mod'
p111
(lp112
(dp113
g4
S'MIR:00100084'
p114
sg6
S'http://www.ebi.ac.uk/ontology-lookup/?termId=$id'
p115
sa(dp116
g4
S'MIR:00100239'
p117
sg6
S'http://bioportal.bioontology.org/ontologies/1041?p=terms&conceptid=$id'
p118
sasS'urn:miriam:asap'
p119
(lp120
(dp121
g4
S'MIR:00100364'
p122
sg6
S'http://asap.ahabs.wisc.edu/asap/feature_info.php?LocationID=WIS&FeatureID=$id'
p123
sasS'urn:miriam:ensembl.protist'
p124
(lp125
(dp126
g4
S'MIR:00100262'
p127
sg6
S'http://protists.ensembl.org/id/$id'
p128
sasS'urn:miriam:orthodb'
p129
(lp130
(dp131
g4
S'MIR:00100280'
p132
sg6
S'http://cegg.unige.ch/orthodb/results?searchtext=$id'
p133
sasS'urn:miriam:ecogene'
p134
(lp135
(dp136
g4
S'MIR:00100208'
p137
sg6
S'http://ecogene.org/?q=gene/$id'
p138
sa(dp139
g4
S'MIR:00100209'
p140
sg6
S'http://maxd.cs.purdue.edu:9455/geneInfo.php?eg_id=$id'
p141
sasS'urn:miriam:dpv'
p142
(lp143
(dp144
g4
S'MIR:00100361'
p145
sg6
S'http://www.dpvweb.net/dpv/showdpv.php?dpvno=$id'
p146
sasS'urn:miriam:bgee.organ'
p147
(lp148
(dp149
g4
S'MIR:00100543'
p150
sg6
S'http://bgee.unil.ch/bgee/bgee?page=anatomy&action=organ_details&organ_id=$id&organ_children=on'
p151
sasS'urn:miriam:ctd.disease'
p152
(lp153
(dp154
g4
S'MIR:00100130'
p155
sg6
S'http://ctdbase.org/detail.go?type=disease&db=MESH&acc=$id'
p156
sasS'urn:miriam:nbrc'
p157
(lp158
(dp159
g4
S'MIR:00100225'
p160
sg6
S'http://www.nbrc.nite.go.jp/NBRC2/NBRCCatalogueDetailServlet?ID=NBRC&CAT=$id'
p161
sasS'urn:miriam:intact.molecule'
p162
(lp163
(dp164
g4
S'MIR:00100550'
p165
sg6
S'http://www.ebi.ac.uk/intact/molecule/$id'
p166
sasS'urn:miriam:sciencesignaling.path'
p167
(lp168
(dp169
g4
S'MIR:00100394'
p170
sg6
S'http://stke.sciencemag.org/cgi/cm/stkecm;$id'
p171
sasS'urn:miriam:soybase'
p172
(lp173
(dp174
g4
S'MIR:00100373'
p175
sg6
S'http://soybeanbreederstoolbox.org/search/search_results.php?category=SNP&search_term=$id'
p176
sasS'urn:miriam:flystock'
p177
(lp178
(dp179
g4
S'MIR:00100426'
p180
sg6
S'http://flystocks.bio.indiana.edu/Reports/$id.html'
p181
sasS'urn:miriam:atcvet'
p182
(lp183
(dp184
g4
S'MIR:00100344'
p185
sg6
S'http://www.whocc.no/atcvet/atcvet_index/?code=$id'
p186
sasS'urn:miriam:pharmgkb.gene'
p187
(lp188
(dp189
g4
S'MIR:00100316'
p190
sg6
S'http://www.pharmgkb.org/gene/$id'
p191
sasS'urn:miriam:yid'
p192
(lp193
(dp194
g4
S'MIR:00100595'
p195
sg6
S'http://metarray.ucsc.edu/cgi-bin/intron/yirIntrondb?orfName=$id'
p196
sasS'urn:miriam:cdd'
p197
(lp198
(dp199
g4
S'MIR:00100152'
p200
sg6
S'http://www.ncbi.nlm.nih.gov/Structure/cdd/cddsrv.cgi?uid=$id'
p201
sasS'urn:miriam:peo'
p202
(lp203
(dp204
g4
S'MIR:00100667'
p205
sg6
S'http://archive.gramene.org/db/ontology/search?query=$id'
p206
sa(dp207
g4
S'MIR:00100668'
p208
sg6
S'http://purl.bioontology.org/ontology/PECO/$id'
p209
sa(dp210
g4
S'MIR:00100669'
p211
sg6
S'https://www.ebi.ac.uk/ontology-lookup/?termId=$id'
p212
sasS'urn:miriam:cath.domain'
p213
(lp214
(dp215
g4
S'MIR:00100269'
p216
sg6
S'http://www.cathdb.info/domain/$id'
p217
sasS'urn:miriam:genatlas'
p218
(lp219
(dp220
g4
S'MIR:00100267'
p221
sg6
S'http://genatlas.medecine.univ-paris5.fr/fiche.php?symbol=$id'
p222
sasS'urn:miriam:amoebadb'
p223
(lp224
(dp225
g4
S'MIR:00100193'
p226
sg6
S'http://amoebadb.org/amoeba/showRecord.do?name=GeneRecordClasses.GeneRecordClass&source_id=$id'
p227
sasS'urn:miriam:cattleqtldb'
p228
(lp229
(dp230
g4
S'MIR:00100645'
p231
sg6
S'http://www.animalgenome.org/cgi-bin/QTLdb/BT/qdetails?QTL_ID=$id'
p232
sasS'urn:miriam:cryptodb'
p233
(lp234
(dp235
g4
S'MIR:00100194'
p236
sg6
S'http://cryptodb.org/cryptodb/showRecord.do?name=GeneRecordClasses.GeneRecordClass&source_id=$id'
p237
sasS'urn:miriam:uniparc'
p238
(lp239
(dp240
g4
S'MIR:00100069'
p241
sg6
S'http://www.ebi.ac.uk/cgi-bin/dbfetch?db=uniparc&id=$id'
p242
sa(dp243
g4
S'MIR:00100476'
p244
sg6
S'http://www.uniprot.org/uniparc/$id'
p245
sasS'urn:miriam:niaest'
p246
(lp247
(dp248
g4
S'MIR:00100387'
p249
sg6
S'http://lgsun.grc.nia.nih.gov/cgi-bin/pro3?sname1=$id'
p250
sasS'urn:miriam:pato'
p251
(lp252
(dp253
g4
S'MIR:00100145'
p254
sg6
S'http://www.ebi.ac.uk/ontology-lookup/?termId=$id'
p255
sa(dp256
g4
S'MIR:00100238'
p257
sg6
S'http://purl.bioontology.org/ontology/PATO/$id'
p258
sasS'urn:miriam:iuphar.receptor'
p259
(lp260
(dp261
g4
S'MIR:00100362'
p262
sg6
S'http://www.iuphar-db.org/DATABASE/ObjectDisplayForward?objectId=$id'
p263
sasS'urn:miriam:merops'
p264
(lp265
(dp266
g4
S'MIR:00100087'
p267
sg6
S'http://merops.sanger.ac.uk/cgi-bin/pepsum?mid=$id'
p268
sasS'urn:miriam:ena.embl'
p269
(lp270
(dp271
g4
S'MIR:00100473'
p272
sg6
S'http://www.ebi.ac.uk/ena/data/view/$id'
p273
sasS'urn:miriam:neuromorpho'
p274
(lp275
(dp276
g4
S'MIR:00100126'
p277
sg6
S'http://neuromorpho.org/neuroMorpho/neuron_info.jsp?neuron_name=$id'
p278
sasS'urn:miriam:obo.ro'
p279
(lp280
(dp281
g4
S'MIR:00100153'
p282
sg6
S'http://www.obofoundry.org/ro/#$id'
p283
sasS'urn:miriam:doqcs.model'
p284
(lp285
(dp286
g4
S'MIR:00100174'
p287
sg6
S'http://doqcs.ncbs.res.in/template.php?&y=accessiondetails&an=$id'
p288
sasS'urn:miriam:isfinder'
p289
(lp290
(dp291
g4
S'MIR:00100219'
p292
sg6
S'http://www-is.biotoul.fr/index.html?is_special_name=$id'
p293
sasS'urn:miriam:panther'
p294
(lp295
(dp296
g4
S'MIR:00100088'
p297
sg6
S'http://www.pantherdb.org/panther/family.do?clsAccession=$id'
p298
sasS'urn:miriam:conoserver'
p299
(lp300
(dp301
g4
S'MIR:00100325'
p302
sg6
S'http://www.conoserver.org/?page=card&table=protein&id=$id'
p303
sasS'urn:miriam:chembl.compound'
p304
(lp305
(dp306
g4
S'MIR:00100115'
p307
sg6
S'https://www.ebi.ac.uk/chembl/compound/inspect/$id'
p308
sa(dp309
g4
S'MIR:00100484'
p310
sg6
S'http://linkedchemistry.info/chembl/chemblid/$id'
p311
sasS'urn:miriam:2d-page.protein'
p312
(lp313
(dp314
g4
S'MIR:00100248'
p315
sg6
S'http://2dbase.techfak.uni-bielefeld.de/cgi-bin/2d/2d.cgi?ac=$id'
p316
sasS'urn:miriam:gmd'
p317
(lp318
(dp319
g4
S'MIR:00100354'
p320
sg6
S'http://gmd.mpimp-golm.mpg.de/Metabolites/$id.aspx'
p321
sasS'urn:miriam:rhea'
p322
(lp323
(dp324
g4
S'MIR:00100113'
p325
sg6
S'http://www.ebi.ac.uk/rhea/reaction.xhtml?id=$id'
p326
sasS'urn:miriam:phosphosite'
p327
(lp328
(dp329
g4
S'MIR:00100138'
p330
sg6
S'http://www.phosphosite.org/proteinAction.do?id=$id'
p331
sasS'urn:miriam:miriam.resource'
p332
(lp333
(dp334
g4
S'MIR:00100245'
p335
sg6
S'http://www.ebi.ac.uk/miriam/main/resources/$id'
p336
sasS'urn:miriam:merops.family'
p337
(lp338
(dp339
g4
S'MIR:00100384'
p340
sg6
S'http://merops.sanger.ac.uk/cgi-bin/famsum?family=$id'
p341
sasS'urn:miriam:glycoepitope'
p342
(lp343
(dp344
g4
S'MIR:00100613'
p345
sg6
S'http://www.glyco.is.ritsumei.ac.jp/epitope-bin/epitope.cgi?mode=general&epitope_id=$id'
p346
sasS'urn:miriam:biomodels.teddy'
p347
(lp348
(dp349
g4
S'MIR:00100140'
p350
sg6
S'http://purl.bioontology.org/ontology/TEDDY/$id'
p351
sasS'urn:miriam:ttd.target'
p352
(lp353
(dp354
g4
S'MIR:00100124'
p355
sg6
S'http://bidd.nus.edu.sg/group/cjttd/ZFTTDDetail.asp?ID=$id'
p356
sasS'urn:miriam:chickenqtldb'
p357
(lp358
(dp359
g4
S'MIR:00100646'
p360
sg6
S'http://www.animalgenome.org/cgi-bin/QTLdb/GG/qdetails?QTL_ID=$id'
p361
sasS'urn:miriam:supfam'
p362
(lp363
(dp364
g4
S'MIR:00100454'
p365
sg6
S'http://supfam.org/SUPERFAMILY/cgi-bin/scop.cgi?ipid=$id'
p366
sasS'urn:miriam:genedb'
p367
(lp368
(dp369
g4
S'MIR:00100139'
p370
sg6
S'http://www.genedb.org/gene/$id'
p371
sasS'urn:miriam:obo.do'
p372
(lp373
(dp374
g4
S'MIR:00100292'
p375
sg6
S'http://purl.bioontology.org/ontology/DOID/$id'
p376
sa(dp377
g4
S'MIR:00100293'
p378
sg6
S'http://www.ebi.ac.uk/ontology-lookup/?termId=$id'
p379
sa(dp380
g4
S'MIR:00100297'
p381
sg6
S'http://disease-ontology.org/term/$id'
p382
sasS'urn:miriam:gold.meta'
p383
(lp384
(dp385
g4
S'MIR:00100522'
p386
sg6
S'http://genomesonline.org/cgi-bin/GOLD/bin/GOLDCards.cgi?goldstamp=$id'
p387
sasS'urn:miriam:bdgp.insertion'
p388
(lp389
(dp390
g4
S'MIR:00100201'
p391
sg6
S'http://flypush.imgen.bcm.tmc.edu/pscreen/details.php?line=$id'
p392
sasS'urn:miriam:tgd'
p393
(lp394
(dp395
g4
S'MIR:00100396'
p396
sg6
S'http://ciliate.org/index.php/feature/details/$id'
p397
sasS'urn:miriam:oryzabase.gene'
p398
(lp399
(dp400
g4
S'MIR:00100618'
p401
sg6
S'http://www.shigen.nig.ac.jp/rice/oryzabaseV4/gene/detail/$id'
p402
sasS'urn:miriam:jcsd'
p403
(lp404
(dp405
g4
S'MIR:00100307'
p406
sg6
S'http://nikkajiweb.jst.go.jp/nikkaji_web/pages/top_e.jsp?CONTENT=syosai&SN=$id'
p407
sasS'urn:lsid:uniprot.org:uniprot'
p408
(lp409
(dp410
g4
S'MIR:00100004'
p411
sg6
S'http://www.ebi.uniprot.org/entry/$id'
p412
sa(dp413
g4
S'MIR:00100027'
p414
sg6
S'http://www.pir.uniprot.org/cgi-bin/upEntry?id=$id'
p415
sa(dp416
g4
S'MIR:00100031'
p417
sg6
S'http://us.expasy.org/uniprot/$id'
p418
sa(dp419
g4
S'MIR:00100134'
p420
sg6
S'http://www.uniprot.org/uniprot/$id'
p421
sa(dp422
g4
S'MIR:00100164'
p423
sg6
S'http://purl.uniprot.org/uniprot/$id'
p424
sa(dp425
g4
S'MIR:00100330'
p426
sg6
S'http://www.ncbi.nlm.nih.gov/protein/$id'
p427
sasS'urn:miriam:phenolexplorer'
p428
(lp429
(dp430
g4
S'MIR:00100345'
p431
sg6
S'http://www.phenol-explorer.eu/contents/food/$id'
p432
sasS'urn:miriam:neurolex'
p433
(lp434
(dp435
g4
S'MIR:00100160'
p436
sg6
S'http://www.neurolex.org/wiki/$id'
p437
sa(dp438
g4
S'MIR:00100183'
p439
sg6
S'http://purl.bioontology.org/ontology/BIRNLEX/$id'
p440
sasS'urn:miriam:kegg.genes'
p441
(lp442
(dp443
g4
S'MIR:00100100'
p444
sg6
S'http://www.kegg.jp/entry/$id'
p445
sasS'urn:miriam:funcbase.fly'
p446
(lp447
(dp448
g4
S'MIR:00100596'
p449
sg6
S'http://func.mshri.on.ca/fly/genes/list_functional_scores/$id'
p450
sasS'urn:miriam:wormpep'
p451
(lp452
(dp453
g4
S'MIR:00100051'
p454
sg6
S'http://www.wormbase.org/db/seq/protein?name=WP:$id'
p455
sa(dp456
g4
S'MIR:00100052'
p457
sg6
S'http://wormbase.sanger.ac.uk/db/seq/protein?name=WP:$id'
p458
sa(dp459
g4
S'MIR:00100053'
p460
sg6
S'http://imbb.wormbase.org/db/seq/protein?name=$id'
p461
sa(dp462
g4
S'MIR:00100054'
p463
sg6
S'http://caltech.wormbase.org/db/seq/protein?name=$id'
p464
sa(dp465
g4
S'MIR:00100055'
p466
sg6
S'http://crfb-3.univ-mrs.fr/db/seq/protein?name=$id'
p467
sasS'urn:miriam:bgee.gene'
p468
(lp469
(dp470
g4
S'MIR:00100541'
p471
sg6
S'http://bgee.unil.ch/bgee/bgee?page=gene&action=summary&gene_id=$id'
p472
sasS'urn:miriam:ensembl.bacteria'
p473
(lp474
(dp475
g4
S'MIR:00100261'
p476
sg6
S'http://bacteria.ensembl.org/id/$id'
p477
sasS'urn:miriam:neurondb'
p478
(lp479
(dp480
g4
S'MIR:00100125'
p481
sg6
S'http://senselab.med.yale.edu/NeuronDB/NeuronProp.aspx?id=$id'
p482
sasS'urn:miriam:vbrc'
p483
(lp484
(dp485
g4
S'MIR:00100582'
p486
sg6
S'http://vbrc.org/gene_detail.asp?gene_id=$id'
p487
sasS'urn:miriam:piroplasma'
p488
(lp489
(dp490
g4
S'MIR:00100448'
p491
sg6
S'http://piroplasmadb.org/piro/showRecord.do?name=GeneRecordClasses.GeneRecordClass&source_id=$id'
p492
sasS'urn:miriam:tissuelist'
p493
(lp494
(dp495
g4
S'MIR:00100457'
p496
sg6
S'http://www.uniprot.org/tissues/$id'
p497
sasS'urn:miriam:noncodev4.rna'
p498
(lp499
(dp500
g4
S'MIR:00100617'
p501
sg6
S'http://www.noncode.org/show_rna.php?id=$id'
p502
sasS'urn:miriam:ecoliwiki'
p503
(lp504
(dp505
g4
S'MIR:00100573'
p506
sg6
S'http://ecoliwiki.net/colipedia/index.php/$id:Gene'
p507
sasS'urn:miriam:obo.pato'
p508
g252
sS'urn:miriam:virsirna'
p509
(lp510
(dp511
g4
S'MIR:00100320'
p512
sg6
S'http://crdd.osdd.net/servers/virsirnadb/record.php?details=$id'
p513
sasS'urn:miriam:tarbase'
p514
(lp515
(dp516
g4
S'MIR:00100435'
p517
sg6
S'http://diana.cslab.ece.ntua.gr/DianaToolsNew/index.php?r=tarbase/index&mirnas=$id'
p518
sasS'urn:miriam:genpept'
p519
(lp520
(dp521
g4
S'MIR:00100440'
p522
sg6
S'http://www.ncbi.nlm.nih.gov/protein/$id?report=genpept'
p523
sasS'urn:miriam:cellimage'
p524
(lp525
(dp526
g4
S'MIR:00100328'
p527
sg6
S'http://cellimagelibrary.org/images/$id'
p528
sasS'urn:miriam:gxa.gene'
p529
(lp530
(dp531
g4
S'MIR:00100482'
p532
sg6
S'http://www.ebi.ac.uk/gxa/genes/$id'
p533
sasS'urn:miriam:pmap.cutdb'
p534
(lp535
(dp536
g4
S'MIR:00100284'
p537
sg6
S'http://cutdb.burnham.org/relation/show/$id'
p538
sasS'urn:miriam:prodom'
p539
(lp540
(dp541
g4
S'MIR:00100150'
p542
sg6
S'http://prodom.prabi.fr/prodom/current/cgi-bin/request.pl?question=DBEN&query=$id'
p543
sasS'urn:miriam:lrg'
p544
(lp545
(dp546
g4
S'MIR:00100478'
p547
sg6
S'ftp://ftp.ebi.ac.uk/pub/databases/lrgex/$id.xml'
p548
sa(dp549
g4
S'MIR:00100627'
p550
sg6
S'http://www.ensembl.org/Homo_sapiens/LRG/Summary?lrg=$id'
p551
sa(dp552
g4
S'MIR:00100629'
p553
sg6
S'http://asia.ensembl.org/Homo_sapiens/LRG/Summary?lrg=$id'
p554
sa(dp555
g4
S'MIR:00100630'
p556
sg6
S'http://uswest.ensembl.org/Homo_sapiens/LRG/Summary?lrg=$id'
p557
sa(dp558
g4
S'MIR:00100631'
p559
sg6
S'http://useast.ensembl.org/Homo_sapiens/LRG/Summary?lrg=$id'
p560
sasS'urn:miriam:knapsack'
p561
(lp562
(dp563
g4
S'MIR:00100350'
p564
sg6
S'http://kanaya.naist.jp/knapsack_jsp/information.jsp?word=$id'
p565
sasS'urn:miriam:spike.map'
p566
(lp567
(dp568
g4
S'MIR:00100404'
p569
sg6
S'http://www.cs.tau.ac.il/~spike/maps/$id.html'
p570
sasS'urn:miriam:mmrrc'
p571
(lp572
(dp573
g4
S'MIR:00100414'
p574
sg6
S'http://www.mmrrc.org/catalog/getSDS.php?mmrrc_id=$id'
p575
sasS'urn:miriam:iceberg.element'
p576
(lp577
(dp578
g4
S'MIR:00100604'
p579
sg6
S'http://db-mml.sjtu.edu.cn/ICEberg/feature_page.php?ice_id=$id'
p580
sasS'urn:miriam:bioproject'
p581
(lp582
(dp583
g4
S'MIR:00100444'
p584
sg6
S'http://trace.ddbj.nig.ac.jp/BPSearch/bioproject?acc=$id'
p585
sa(dp586
g4
S'MIR:00100445'
p587
sg6
S'http://www.ncbi.nlm.nih.gov/bioproject?term=$id'
p588
sa(dp589
g4
S'MIR:00100446'
p590
sg6
S'http://www.ebi.ac.uk/ena/data/view/$id'
p591
sasS'urn:miriam:bgee.family'
p592
(lp593
(dp594
g4
S'MIR:00100540'
p595
sg6
S'http://bgee.unil.ch/bgee/bgee?page=gene_family&action=family_details&gene_family_id=$id'
p596
sasS'urn:miriam:ubio.namebank'
p597
(lp598
(dp599
g4
S'MIR:00100433'
p600
sg6
S'http://www.ubio.org/browser/details.php?namebankID=$id'
p601
sasS'urn:miriam:ncbigi'
p602
(lp603
(dp604
g4
S'MIR:00100652'
p605
sg6
S'http://www.ncbi.nlm.nih.gov/protein/$id'
p606
sasS'urn:miriam:paleodb'
p607
(lp608
(dp609
g4
S'MIR:00100254'
p610
sg6
S'http://paleodb.org/cgi-bin/bridge.pl?a=basicTaxonInfo&taxon_no=$id'
p611
sa(dp612
g4
S'MIR:00100255'
p613
sg6
S'http://museumu03.museumwww.naturkundemuseum-berlin.de/cgi-bin/bridge.pl?a=basicTaxonInfo&taxon_no=$id'
p614
sa(dp615
g4
S'MIR:00100256'
p616
sg6
S'http://paleodb.geology.wisc.edu/cgi-bin/bridge.pl?a=basicTaxonInfo&taxon_no=$id'
p617
sasS'urn:miriam:mesh.2012'
p618
(lp619
(dp620
g4
S'MIR:00100348'
p621
sg6
S'http://bioportal.bioontology.org/ontologies/1351?p=terms&conceptid=$id'
p622
sa(dp623
g4
S'MIR:00100349'
p624
sg6
S'http://www.nlm.nih.gov/cgi/mesh/2012/MB_cgi?mode=&index=$id&view=expanded'
p625
sasS'urn:miriam:mesh.2013'
p626
(lp627
(dp628
g4
S'MIR:00100608'
p629
sg6
S'http://www.nlm.nih.gov/cgi/mesh/2013/MB_cgi?mode=&index=$id&view=expanded'
p630
sasS'urn:miriam:protonet.proteincard'
p631
(lp632
(dp633
g4
S'MIR:00100287'
p634
sg6
S'http://www.protonet.cs.huji.ac.il/requested/protein_card.php?protein_id=$id'
p635
sasS'urn:miriam:rebase'
p636
(lp637
(dp638
g4
S'MIR:00100289'
p639
sg6
S'http://rebase.neb.com/rebase/enz/$id.html'
p640
sasS'urn:miriam:pharmgkb.drug'
p641
(lp642
(dp643
g4
S'MIR:00100122'
p644
sg6
S'http://www.pharmgkb.org/drug/$id'
p645
sasS'urn:miriam:sitex'
p646
(lp647
(dp648
g4
S'MIR:00100323'
p649
sg6
S'http://www-bionet.sscc.ru/sitex/index.php?siteid=$id'
p650
sasS'urn:miriam:unit'
p651
(lp652
(dp653
g4
S'MIR:00100178'
p654
sg6
S'http://www.ebi.ac.uk/ontology-lookup/?termId=$id'
p655
sa(dp656
g4
S'MIR:00100243'
p657
sg6
S'http://purl.bioontology.org/ontology/UO/$id'
p658
sasS'urn:miriam:biomodels.kisao'
p659
(lp660
(dp661
g4
S'MIR:00100141'
p662
sg6
S'http://purl.bioontology.org/ontology/KISAO/kisao:$id'
p663
sasS'urn:miriam:img.gene'
p664
(lp665
(dp666
g4
S'MIR:00100222'
p667
sg6
S'http://img.jgi.doe.gov/cgi-bin/w/main.cgi?section=GeneDetail&gene_oid=$id'
p668
sasS'urn:miriam:ctd.gene'
p669
(lp670
(dp671
g4
S'MIR:00100131'
p672
sg6
S'http://ctdbase.org/detail.go?type=gene&acc=$id'
p673
sasS'urn:miriam:hogenom'
p674
(lp675
(dp676
g4
S'MIR:00100272'
p677
sg6
S'http://pbil.univ-lyon1.fr/cgi-bin/view-tree.pl?db=HOGENOM5&query=$id'
p678
sasS'urn:miriam:aphidbase.transcript'
p679
(lp680
(dp681
g4
S'MIR:00100513'
p682
sg6
S'http://bipaa.genouest.org/apps/grs-2.3/grs?reportID=aphidbase_transcript_report&objectID=$id'
p683
sasS'urn:miriam:chembank'
p684
(lp685
(dp686
g4
S'MIR:00100187'
p687
sg6
S'http://chembank.broadinstitute.org/chemistry/viewMolecule.htm?cbid=$id'
p688
sasS'urn:miriam:microsporidia'
p689
(lp690
(dp691
g4
S'MIR:00100197'
p692
sg6
S'http://microsporidiadb.org/micro/showRecord.do?name=GeneRecordClasses.GeneRecordClass&source_id=$id'
p693
sasS'urn:miriam:hgnc.symbol'
p694
(lp695
(dp696
g4
S'MIR:00100460'
p697
sg6
S'http://www.genenames.org/cgi-bin/gene_symbol_report?match=$id'
p698
sasS'urn:miriam:noncodev4.gene'
p699
(lp700
(dp701
g4
S'MIR:00100616'
p702
sg6
S'http://www.noncode.org/show_gene.php?id=$id'
p703
sasS'urn:miriam:ligandexpo'
p704
(lp705
(dp706
g4
S'MIR:00100090'
p707
sg6
S'http://ligand-depot.rutgers.edu/pyapps/ldHandler.py?formid=cc-index-search&target=$id&operation=ccid'
p708
sa(dp709
g4
S'MIR:00100615'
p710
sg6
S'http://ligand-expo.rcsb.org/pyapps/ldHandler.py?formid=cc-index-search&target=$id&operation=ccid'
p711
sasS'urn:miriam:mamo'
p712
(lp713
(dp714
g4
S'MIR:00100665'
p715
sg6
S'http://bioportal.bioontology.org/ontologies/MAMO/?p=classes&conceptid=http://identifiers.org/mamo/$id'
p716
sasS'urn:miriam:pdb.ligand'
p717
(lp718
(dp719
g4
S'MIR:00100626'
p720
sg6
S'http://www.rcsb.org/pdb/ligand/ligandsummary.do?hetId=$id'
p721
sa(dp722
g4
S'MIR:00100650'
p723
sg6
S'http://www.ebi.ac.uk/pdbe-srv/pdbechem/chemicalCompound/show/$id'
p724
sasS'urn:miriam:pmap.substratedb'
p725
(lp726
(dp727
g4
S'MIR:00100283'
p728
sg6
S'http://substrate.burnham.org/protein/annotation/$id/html'
p729
sasS'urn:miriam:proteomexchange'
p730
(lp731
(dp732
g4
S'MIR:00100660'
p733
sg6
S'http://proteomecentral.proteomexchange.org/cgi/GetDataset?ID=$id'
p734
sasS'urn:miriam:affy.probeset'
p735
(lp736
(dp737
g4
S'MIR:00100514'
p738
sg6
S'https://www.affymetrix.com/LinkServlet?probeset=$id'
p739
sa(dp740
g4
S'MIR:00100672'
p741
sg6
S'http://cu.affymetrix.bio2rdf.org/describe/?url=http%3A%2F%2Fbio2rdf.org%2Faffymetrix%3A$id'
p742
sasS'urn:miriam:aspgd.locus'
p743
(lp744
(dp745
g4
S'MIR:00100534'
p746
sg6
S'http://www.aspergillusgenome.org/cgi-bin/locus.pl?dbid=$id'
p747
sasS'urn:miriam:kegg.disease'
p748
(lp749
(dp750
g4
S'MIR:00100610'
p751
sg6
S'http://www.kegg.jp/entry/$id'
p752
sasS'urn:miriam:oryzabase.stage'
p753
(lp754
(dp755
g4
S'MIR:00100621'
p756
sg6
S'http://www.shigen.nig.ac.jp/rice/oryzabaseV4/devstageineachorgan/detail/$id'
p757
sasS'urn:miriam:subtiwiki'
p758
(lp759
(dp760
g4
S'MIR:00100172'
p761
sg6
S'http://www.subtiwiki.uni-goettingen.de/wiki/index.php/$id'
p762
sasS'urn:miriam:mesh'
p763
g619
sS'urn:miriam:sciencesignaling.pdc'
p764
(lp765
(dp766
g4
S'MIR:00100393'
p767
sg6
S'http://stke.sciencemag.org/cgi/cm/stkecm;$id'
p768
sasS'urn:miriam:lipidbank'
p769
(lp770
(dp771
g4
S'MIR:00100148'
p772
sg6
S'http://lipidbank.jp/cgi-bin/detail.cgi?id=$id'
p773
sasS'urn:miriam:peptideatlas'
p774
(lp775
(dp776
g4
S'MIR:00100081'
p777
sg6
S'https://db.systemsbiology.net/sbeams/cgi/PeptideAtlas/Summarize_Peptide?query=QUERY&searchForThis=$id'
p778
sasS'urn:miriam:protonet.cluster'
p779
(lp780
(dp781
g4
S'MIR:00100288'
p782
sg6
S'http://www.protonet.cs.huji.ac.il/requested/cluster_card.php?cluster=$id'
p783
sasS'urn:miriam:rgd.qtl'
p784
(lp785
(dp786
g4
S'MIR:00100586'
p787
sg6
S'http://rgd.mcw.edu/rgdweb/report/qtl/main.html?id=$id'
p788
sasS'urn:miriam:uniprot.isoform'
p789
(lp790
(dp791
g4
S'MIR:00100502'
p792
sg6
S'http://www.uniprot.org/uniprot/$id'
p793
sa(dp794
g4
S'MIR:00100503'
p795
sg6
S'http://purl.uniprot.org/uniprot/$id'
p796
sa(dp797
g4
S'MIR:00100504'
p798
sg6
S'http://www.uniprot.org/uniparc/?query=$id'
p799
sasS'urn:miriam:idot'
p800
(lp801
(dp802
g4
S'MIR:00100670'
p803
sg6
S'http://biomodels.net/vocab/idot.rdf#$id'
p804
sasS'urn:miriam:massbank'
p805
(lp806
(dp807
g4
S'MIR:00100352'
p808
sg6
S'http://msbi.ipb-halle.de/MassBank/jsp/FwdRecord.jsp?id=$id'
p809
sa(dp810
g4
S'MIR:00100353'
p811
sg6
S'http://www.massbank.jp/jsp/FwdRecord.jsp?id=$id'
p812
sa(dp813
g4
S'MIR:00100666'
p814
sg6
S'http://www.massbank.eu/MassBank/jsp/FwdRecord.jsp?id=$id'
p815
sasS'urn:miriam:ird.segment'
p816
(lp817
(dp818
g4
S'MIR:00100218'
p819
sg6
S'http://www.fludb.org/brc/fluSegmentDetails.do?ncbiGenomicAccession=$id'
p820
sasS'urn:miriam:tritrypdb'
p821
(lp822
(dp823
g4
S'MIR:00100200'
p824
sg6
S'http://tritrypdb.org/tritrypdb/showRecord.do?name=GeneRecordClasses.GeneRecordClass&source_id=$id'
p825
sasS'urn:miriam:combine.specifications'
p826
(lp827
(dp828
g4
S'MIR:00100329'
p829
sg6
S'http://co.mbine.org/specifications/$id'
p830
sasS'urn:miriam:scretf'
p831
(lp832
(dp833
g4
S'MIR:00100315'
p834
sg6
S'http://stormo.wustl.edu/ScerTF/details/$id/'
p835
sasS'urn:miriam:p3db.protein'
p836
(lp837
(dp838
g4
S'MIR:00100642'
p839
sg6
S'http://www.p3db.org/protein.php?id=$id&amp;ref=0'
p840
sasS'urn:miriam:ipi'
p841
(lp842
(dp843
g4
S'MIR:00100071'
p844
sg6
S'http://www.ebi.ac.uk/Tools/dbfetch/dbfetch?db=ipi&id=$id&format=default&style=html'
p845
sasS'urn:miriam:interpro'
p846
(lp847
(dp848
g4
S'MIR:00100018'
p849
sg6
S'http://www.ebi.ac.uk/interpro/entry/$id'
p850
sasS'urn:miriam:otl'
p851
(lp852
(dp853
g4
S'MIR:00100622'
p854
sg6
S'http://oryzatagline.cirad.fr/cgi-bin/general_mutant.pl?line=$id'
p855
sasS'urn:miriam:unigene'
p856
(lp857
(dp858
g4
S'MIR:00100441'
p859
sg6
S'http://www.ncbi.nlm.nih.gov/UniGene/clust.cgi?UGID=$id'
p860
sasS'urn:miriam:oryzabase.strain'
p861
(lp862
(dp863
g4
S'MIR:00100620'
p864
sg6
S'http://www.shigen.nig.ac.jp/rice/oryzabaseV4/strain/wildCore/detail/$id'
p865
sasS'urn:miriam:funcat'
p866
(lp867
(dp868
g4
S'MIR:00100602'
p869
sg6
S'http://mips.helmholtz-muenchen.de/cgi-bin/proj/funcatDB/search_advanced.pl?action=2&wert=$id'
p870
sasS'urn:miriam:ensembl'
p871
(lp872
(dp873
g4
S'MIR:00100011'
p874
sg6
S'http://www.ensembl.org/id/$id'
p875
sa(dp876
g4
S'MIR:00100561'
p877
sg6
S'http://uswest.ensembl.org/id/$id'
p878
sa(dp879
g4
S'MIR:00100562'
p880
sg6
S'http://useast.ensembl.org/id/$id'
p881
sa(dp882
g4
S'MIR:00100563'
p883
sg6
S'http://asia.ensembl.org/id/$id'
p884
sasS'urn:miriam:pigqtldb'
p885
(lp886
(dp887
g4
S'MIR:00100647'
p888
sg6
S'http://www.animalgenome.org/cgi-bin/QTLdb/SS/qdetails?QTL_ID=$id'
p889
sasS'urn:miriam:grin.taxonomy'
p890
(lp891
(dp892
g4
S'MIR:00100212'
p893
sg6
S'http://www.ars-grin.gov/cgi-bin/npgs/html/taxon.pl?$id'
p894
sasS'urn:miriam:ncbi.gene'
p895
(lp896
(dp897
g4
S'MIR:00100099'
p898
sg6
S'http://www.ncbi.nlm.nih.gov/gene/$id'
p899
sasS'urn:miriam:cco'
p900
(lp901
(dp902
g4
S'MIR:00100294'
p903
sg6
S'http://www.ebi.ac.uk/ontology-lookup/?termId=$id'
p904
sa(dp905
g4
S'MIR:00100295'
p906
sg6
S'http://bioportal.bioontology.org/ontologies/1507?p=terms&conceptid=$id'
p907
sasS'urn:miriam:bugbase.expt'
p908
(lp909
(dp910
g4
S'MIR:00100524'
p911
sg6
S'http://bugs.sgul.ac.uk/bugsbase/tabs/experiment.php?expt_id=$id&action=view'
p912
sasS'urn:miriam:panther.pthcmp'
p913
(lp914
(dp915
g4
S'MIR:00100545'
p916
sg6
S'http://www.pantherdb.org/pathway/pathCatDetail.do?clsAccession=$id'
p917
sasS'urn:miriam:obi'
p918
g40
sS'urn:miriam:grsdb'
p919
(lp920
(dp921
g4
S'MIR:00100636'
p922
sg6
S'http://bioinformatics.ramapo.edu/GRSDB2/geneview.php?geneID=$id'
p923
sasS'urn:miriam:pscdb'
p924
(lp925
(dp926
g4
S'MIR:00100469'
p927
sg6
S'http://idp1.force.cs.is.nagoya-u.ac.jp/pscdb/$id.html'
p928
sasS'urn:miriam:fbol'
p929
(lp930
(dp931
g4
S'MIR:00100532'
p932
sg6
S'http://www.fungalbarcoding.org/BioloMICS.aspx?Table=Fungal barcodes&Rec=$id&Fields=All&ExactMatch=T'
p933
sasS'urn:miriam:issn'
p934
(lp935
(dp936
g4
S'MIR:00100383'
p937
sg6
S'http://catalog.loc.gov/cgi-bin/Pwebrecon.cgi?Search_Arg=0745-4570$id&PID=le0kCQllk84KcxI3gMhUTowLMnn9H'
p938
sasS'urn:miriam:zfin.expression'
p939
(lp940
(dp941
g4
S'MIR:00100333'
p942
sg6
S'http://zfin.org/action/genotype/show_all_expression?genoID=$id'
p943
sasS'urn:miriam:depod'
p944
(lp945
(dp946
g4
S'MIR:00100551'
p947
sg6
S'http://www.koehn.embl.de/depod/showp.php?gene=$id'
p948
sasS'urn:miriam:entrez.gene'
p949
g896
sS'urn:miriam:obo.bto'
p950
(lp951
(dp952
g4
S'MIR:00100144'
p953
sg6
S'http://www.ebi.ac.uk/ontology-lookup/?termId=$id'
p954
sa(dp955
g4
S'MIR:00100233'
p956
sg6
S'http://purl.bioontology.org/ontology/BTO/$id'
p957
sasS'urn:miriam:treefam'
p958
(lp959
(dp960
g4
S'MIR:00100515'
p961
sg6
S'http://www.treefam.org/family/$id'
p962
sasS'urn:miriam:pubchem.compound'
p963
(lp964
(dp965
g4
S'MIR:00100059'
p966
sg6
S'http://pubchem.ncbi.nlm.nih.gov/summary/summary.cgi?cid=$id'
p967
sasS'urn:miriam:tcdb'
p968
(lp969
(dp970
g4
S'MIR:00100068'
p971
sg6
S'http://www.tcdb.org/search/result.php?tc=$id'
p972
sasS'urn:miriam:ardb'
p973
(lp974
(dp975
g4
S'MIR:00100678'
p976
sg6
S'http://ardb.cbcb.umd.edu/cgi/search.cgi?db=L&amp;field=ni&amp;term=$id'
p977
sasS'urn:miriam:cst.ab'
p978
(lp979
(dp980
g4
S'MIR:00100553'
p981
sg6
S'http://www.cellsignal.com/products/$id.html'
p982
sasS'urn:miriam:tair.gene'
p983
(lp984
(dp985
g4
S'MIR:00100077'
p986
sg6
S'http://arabidopsis.org/servlets/TairObject?accession=$id'
p987
sasS'urn:miriam:toxoplasma'
p988
(lp989
(dp990
g4
S'MIR:00100198'
p991
sg6
S'http://toxodb.org/toxo/showRecord.do?name=GeneRecordClasses.GeneRecordClass&source_id=$id'
p992
sasS'urn:miriam:tigrfam'
p993
(lp994
(dp995
g4
S'MIR:00100398'
p996
sg6
S'http://www.jcvi.org/cgi-bin/tigrfams/HmmReportPage.cgi?acc=$id'
p997
sasS'urn:miriam:macie'
p998
(lp999
(dp1000
g4
S'MIR:00100108'
p1001
sg6
S'http://www.ebi.ac.uk/thornton-srv/databases/cgi-bin/MACiE/entry/getPage.pl?id=$id'
p1002
sasS'urn:miriam:hinv.locus'
p1003
(lp1004
(dp1005
g4
S'MIR:00100213'
p1006
sg6
S'http://h-invitational.jp/hinv/spsoup/locus_view?hix_id=$id'
p1007
sasS'urn:miriam:sabiork.kineticrecord'
p1008
(lp1009
(dp1010
g4
S'MIR:00100117'
p1011
sg6
S'http://sabiork.h-its.org/newSearch?q=entryid:$id'
p1012
sasS'urn:miriam:bykdb'
p1013
(lp1014
(dp1015
g4
S'MIR:00100324'
p1016
sg6
S'http://bykdb.ibcp.fr/data/html/annotated/$id.html'
p1017
sasS'urn:miriam:corum'
p1018
(lp1019
(dp1020
g4
S'MIR:00100571'
p1021
sg6
S'http://mips.helmholtz-muenchen.de/genre/proj/corum/complexdetails.html?id=$id'
p1022
sasS'urn:miriam:ec-code'
p1023
(lp1024
(dp1025
g4
S'MIR:00100001'
p1026
sg6
S'http://www.ebi.ac.uk/intenz/query?cmd=SearchEC&ec=$id'
p1027
sa(dp1028
g4
S'MIR:00100002'
p1029
sg6
S'http://www.genome.jp/dbget-bin/www_bget?ec:$id'
p1030
sa(dp1031
g4
S'MIR:00100003'
p1032
sg6
S'http://enzyme.expasy.org/EC/$id'
p1033
sa(dp1034
g4
S'MIR:00100308'
p1035
sg6
S'http://www.enzyme-database.org/query.php?ec=$id'
p1036
sasS'urn:miriam:pfam'
p1037
(lp1038
(dp1039
g4
S'MIR:00100043'
p1040
sg6
S'http://pfam.sanger.ac.uk/family/$id/'
p1041
sa(dp1042
g4
S'MIR:00100044'
p1043
sg6
S'http://pfam.sbc.su.se/family/$id'
p1044
sa(dp1045
g4
S'MIR:00100045'
p1046
sg6
S'http://pfam.janelia.org/family/$id'
p1047
sa(dp1048
g4
S'MIR:00100046'
p1049
sg6
S'http://pfam.jouy.inra.fr/cgi-bin/getdesc?acc=$id'
p1050
sa(dp1051
g4
S'MIR:00100047'
p1052
sg6
S'http://pfam.ccbb.re.kr/cgi-bin/getdesc?acc=$id'
p1053
sasS'urn:miriam:biomodels.sbo'
p1054
(lp1055
(dp1056
g4
S'MIR:00100034'
p1057
sg6
S'http://www.ebi.ac.uk/sbo/main/$id'
p1058
sa(dp1059
g4
S'MIR:00100176'
p1060
sg6
S'http://www.ebi.ac.uk/ontology-lookup/?termId=$id'
p1061
sa(dp1062
g4
S'MIR:00100242'
p1063
sg6
S'http://purl.bioontology.org/ontology/SBO/$id'
p1064
sasS'urn:miriam:mimodb'
p1065
(lp1066
(dp1067
g4
S'MIR:00100322'
p1068
sg6
S'http://immunet.cn/mimodb/browse.php?table=mimoset&ID=$id'
p1069
sasS'urn:miriam:antweb'
p1070
(lp1071
(dp1072
g4
S'MIR:00100190'
p1073
sg6
S'http://www.antweb.org/specimen.do?name=$id'
p1074
sasS'urn:miriam:rfam'
p1075
(lp1076
(dp1077
g4
S'MIR:00100530'
p1078
sg6
S'http://rfam.sanger.ac.uk/family/$id'
p1079
sa(dp1080
g4
S'MIR:00100531'
p1081
sg6
S'http://rfam.janelia.org/family/$id'
p1082
sasS'urn:miriam:prosite'
p1083
(lp1084
(dp1085
g4
S'MIR:00100056'
p1086
sg6
S'http://prosite.expasy.org/$id'
p1087
sa(dp1088
g4
S'MIR:00100057'
p1089
sg6
S'http://www.expasy.org/cgi-bin/get-prosite-entry?$id'
p1090
sasS'urn:miriam:mmdb'
p1091
(lp1092
(dp1093
g4
S'MIR:00100154'
p1094
sg6
S'http://www.ncbi.nlm.nih.gov/Structure/mmdb/mmdbsrv.cgi?uid=$id'
p1095
sasS'urn:miriam:umbbd.compound'
p1096
(lp1097
(dp1098
g4
S'MIR:00100356'
p1099
sg6
S'http://umbbd.msi.umn.edu/servlets/pageservlet?ptype=c&compID=$id'
p1100
sa(dp1101
g4
S'MIR:00100357'
p1102
sg6
S'http://umbbd.ethz.ch/servlets/pageservlet?ptype=c&compID=$id'
p1103
sasS'urn:miriam:geo'
p1104
(lp1105
(dp1106
g4
S'MIR:00100082'
p1107
sg6
S'http://www.ncbi.nlm.nih.gov/sites/GDSbrowser?acc=$id'
p1108
sasS'urn:miriam:uniprot'
p1109
g409
sS'urn:miriam:ega.study'
p1110
(lp1111
(dp1112
g4
S'MIR:00100657'
p1113
sg6
S'https://www.ebi.ac.uk/ega/studies/$id'
p1114
sasS'urn:miriam:bugbase.protocol'
p1115
(lp1116
(dp1117
g4
S'MIR:00100523'
p1118
sg6
S'http://bugs.sgul.ac.uk/bugsbase/tabs/protocol.php?protocol_id=$id&amp;action=view'
p1119
sasS'urn:miriam:obo.eco'
p1120
(lp1121
(dp1122
g4
S'MIR:00100083'
p1123
sg6
S'http://www.ebi.ac.uk/ontology-lookup/?termId=$id'
p1124
sa(dp1125
g4
S'MIR:00100235'
p1126
sg6
S'http://purl.bioontology.org/ontology/ECO/$id'
p1127
sasS'urn:miriam:dailymed'
p1128
(lp1129
(dp1130
g4
S'MIR:00100558'
p1131
sg6
S'http://dailymed.nlm.nih.gov/dailymed/lookup.cfm?setid=$id'
p1132
sasS'urn:miriam:chemspider'
p1133
(lp1134
(dp1135
g4
S'MIR:00100180'
p1136
sg6
S'http://www.chemspider.com/Chemical-Structure.$id.html'
p1137
sasS'urn:miriam:hgnc.family'
p1138
(lp1139
(dp1140
g4
S'MIR:00100671'
p1141
sg6
S'http://www.genenames.org/genefamilies/$id'
p1142
sasS'urn:miriam:go'
p1143
g71
sS'urn:miriam:door'
p1144
(lp1145
(dp1146
g4
S'MIR:00100588'
p1147
sg6
S'http://csbl1.bmb.uga.edu/OperonDB/genedetail.php?id=$id'
p1148
sasS'urn:miriam:biosharing'
p1149
(lp1150
(dp1151
g4
S'MIR:00100463'
p1152
sg6
S'http://www.biosharing.org/$id'
p1153
sasS'urn:miriam:unists'
p1154
(lp1155
(dp1156
g4
S'MIR:00100207'
p1157
sg6
S'http://www.ncbi.nlm.nih.gov/genome/sts/sts.cgi?uid=$id'
p1158
sasS'urn:miriam:treebase'
p1159
(lp1160
(dp1161
g4
S'MIR:00100395'
p1162
sg6
S'http://purl.org/phylo/treebase/phylows/study/$id?format=html'
p1163
sasS'urn:miriam:pubmed'
p1164
(lp1165
(dp1166
g4
S'MIR:00100023'
p1167
sg6
S'http://www.ncbi.nlm.nih.gov/pubmed/$id'
p1168
sa(dp1169
g4
S'MIR:00100028'
p1170
sg6
S'http://srs.ebi.ac.uk/srsbin/cgi-bin/wgetz?-view+MedlineFull+[medline-PMID:$id]'
p1171
sa(dp1172
g4
S'MIR:00100032'
p1173
sg6
S'http://www.ebi.ac.uk/citexplore/citationDetails.do?dataSource=MED&externalId=$id'
p1174
sa(dp1175
g4
S'MIR:00100064'
p1176
sg6
S'http://www.hubmed.org/display.cgi?uids=$id'
p1177
sa(dp1178
g4
S'MIR:00100462'
p1179
sg6
S'http://ukpmc.ac.uk/abstract/MED/$id'
p1180
sa(dp1181
g4
S'MIR:00100497'
p1182
sg6
S'http://europepmc.org/abstract/MED/$id'
p1183
sasS'urn:miriam:merops.inhibitor'
p1184
(lp1185
(dp1186
g4
S'MIR:00100632'
p1187
sg6
S'http://merops.sanger.ac.uk/cgi-bin/pepsum?id=$id'
p1188
sasS'urn:miriam:ro'
p1189
g280
sS'urn:miriam:cogs'
p1190
(lp1191
(dp1192
g4
S'MIR:00100378'
p1193
sg6
S'http://www.ncbi.nlm.nih.gov/COG/grace/wiew.cgi?$id'
p1194
sasS'urn:miriam:cldb'
p1195
(lp1196
(dp1197
g4
S'MIR:00100508'
p1198
sg6
S'http://bioinformatics.istge.it/hypercldb/$id.html'
p1199
sasS'urn:miriam:bacmap.map'
p1200
(lp1201
(dp1202
g4
S'MIR:00100539'
p1203
sg6
S'http://bacmap.wishartlab.com/maps/$id/index.html'
p1204
sasS'urn:miriam:hamap'
p1205
(lp1206
(dp1207
g4
S'MIR:00100374'
p1208
sg6
S'http://hamap.expasy.org/unirule/$id'
p1209
sasS'urn:miriam:opb'
p1210
(lp1211
(dp1212
g4
S'MIR:00100167'
p1213
sg6
S'http://purl.bioontology.org/ontology/OPB/$id'
p1214
sasS'urn:miriam:intact'
p1215
(lp1216
(dp1217
g4
S'MIR:00100017'
p1218
sg6
S'http://www.ebi.ac.uk/intact/interaction/$id'
p1219
sasS'urn:miriam:arxiv'
p1220
(lp1221
(dp1222
g4
S'MIR:00100060'
p1223
sg6
S'http://arxiv.org/abs/$id'
p1224
sasS'urn:miriam:lipidmaps'
p1225
(lp1226
(dp1227
g4
S'MIR:00100080'
p1228
sg6
S'http://www.lipidmaps.org/data/get_lm_lipids_dbgif.php?LM_ID=$id'
p1229
sasS'urn:miriam:ideal'
p1230
(lp1231
(dp1232
g4
S'MIR:00100518'
p1233
sg6
S'http://idp1.force.cs.is.nagoya-u.ac.jp/IDEAL/idealItem.php?id=$id'
p1234
sasS'urn:miriam:opm'
p1235
(lp1236
(dp1237
g4
S'MIR:00100427'
p1238
sg6
S'http://opm.phar.umich.edu/protein.php?pdbid=$id'
p1239
sasS'urn:miriam:narcis'
p1240
(lp1241
(dp1242
g4
S'MIR:00100305'
p1243
sg6
S'http://oai.cwi.nl/oai?verb=GetRecord&metadataPrefix=nl_didl&identifier=oai:cwi.nl:$id'
p1244
sa(dp1245
g4
S'MIR:00100306'
p1246
sg6
S'http://www.narcis.nl/publication/RecordID/$id'
p1247
sasS'urn:miriam:hdr'
p1248
(lp1249
(dp1250
g4
S'MIR:00100638'
p1251
sg6
S'http://research.nhgri.nih.gov/apps/homeodomain/web/index.cgi?mode=view&amp;view=proteins&amp;id=$id'
p1252
sasS'urn:miriam:ega.dataset'
p1253
(lp1254
(dp1255
g4
S'MIR:00100658'
p1256
sg6
S'https://www.ebi.ac.uk/ega/datasets/$id'
p1257
sasS'urn:miriam:ccds'
p1258
(lp1259
(dp1260
g4
S'MIR:00100477'
p1261
sg6
S'http://www.ncbi.nlm.nih.gov/CCDS/CcdsBrowse.cgi?REQUEST=CCDS&amp;DATA=$id'
p1262
sasS'urn:miriam:phosphosite.residue'
p1263
(lp1264
(dp1265
g4
S'MIR:00100159'
p1266
sg6
S'http://www.phosphosite.org/siteAction.do?id=$id'
p1267
sasS'urn:miriam:mirnest'
p1268
(lp1269
(dp1270
g4
S'MIR:00100317'
p1271
sg6
S'http://lemur.amu.edu.pl/share/php/mirnest/details.php?id=$id'
p1272
sasS'urn:oai:arXiv.org'
p1273
g1221
sS'urn:miriam:cl'
p1274
(lp1275
(dp1276
g4
S'MIR:00100143'
p1277
sg6
S'http://www.ebi.ac.uk/ontology-lookup/?termId=$id'
p1278
sa(dp1279
g4
S'MIR:00100234'
p1280
sg6
S'http://purl.bioontology.org/ontology/CL/$id'
p1281
sasS'urn:miriam:viralzone'
p1282
(lp1283
(dp1284
g4
S'MIR:00100583'
p1285
sg6
S'http://viralzone.expasy.org/all_by_protein/$id.html'
p1286
sasS'urn:miriam:genefarm'
p1287
(lp1288
(dp1289
g4
S'MIR:00100270'
p1290
sg6
S'https://urgi.versailles.inra.fr/Genefarm/Gene/display_gene.htpl?GENE_ID=$id'
p1291
sasS'urn:miriam:arrayexpress'
p1292
(lp1293
(dp1294
g4
S'MIR:00100061'
p1295
sg6
S'http://www.ebi.ac.uk/arrayexpress/experiments/$id'
p1296
sasS'urn:miriam:orcid'
p1297
(lp1298
(dp1299
g4
S'MIR:00100489'
p1300
sg6
S'https://orcid.org/$id'
p1301
sasS'urn:miriam:cgd'
p1302
(lp1303
(dp1304
g4
S'MIR:00100189'
p1305
sg6
S'http://www.candidagenome.org/cgi-bin/locus.pl?dbid=$id'
p1306
sasS'urn:miriam:pombase'
p1307
(lp1308
(dp1309
g4
S'MIR:00100430'
p1310
sg6
S'http://www.pombase.org/spombe/result/$id'
p1311
sasS'urn:miriam:sgn'
p1312
(lp1313
(dp1314
g4
S'MIR:00100231'
p1315
sg6
S'http://solgenomics.net/phenome/locus_display.pl?locus_id=$id'
p1316
sasS'urn:miriam:vfdb.genus'
p1317
(lp1318
(dp1319
g4
S'MIR:00100606'
p1320
sg6
S'http://www.mgc.ac.cn/cgi-bin/VFs/genus.cgi?Genus=$id'
p1321
sasS'urn:miriam:sciencesignaling.pic'
p1322
(lp1323
(dp1324
g4
S'MIR:00100392'
p1325
sg6
S'http://stke.sciencemag.org/cgi/cm/stkecm;$id'
p1326
sasS'urn:miriam:sgd'
p1327
(lp1328
(dp1329
g4
S'MIR:00100033'
p1330
sg6
S'http://www.yeastgenome.org/cgi-bin/locus.fpl?dbid=$id'
p1331
sasS'urn:miriam:hinv.transcript'
p1332
(lp1333
(dp1334
g4
S'MIR:00100214'
p1335
sg6
S'http://h-invitational.jp/hinv/spsoup/transcript_view?hit_id=$id'
p1336
sasS'urn:miriam:medlineplus'
p1337
(lp1338
(dp1339
g4
S'MIR:00100611'
p1340
sg6
S'http://www.nlm.nih.gov/medlineplus/ency/article/$id.htm'
p1341
sasS'urn:miriam:jcm'
p1342
(lp1343
(dp1344
g4
S'MIR:00100220'
p1345
sg6
S'http://www.jcm.riken.go.jp/cgi-bin/jcm/jcm_number?JCM=$id'
p1346
sasS'urn:miriam:bgee.stage'
p1347
(lp1348
(dp1349
g4
S'MIR:00100542'
p1350
sg6
S'http://bgee.unil.ch/bgee/bgee?page=anatomy&action=organs&stage_id=$id&stage_children=on'
p1351
sasS'urn:miriam:oridb.sacch'
p1352
(lp1353
(dp1354
g4
S'MIR:00100468'
p1355
sg6
S'http://cerevisiae.oridb.org/details.php?id=$id'
p1356
sasS'urn:miriam:drugbank.target'
p1357
(lp1358
(dp1359
g4
S'MIR:00100537'
p1360
sg6
S'http://www.drugbank.ca/molecules/$id?as=target'
p1361
sasS'urn:miriam:obo.so'
p1362
(lp1363
(dp1364
g4
S'MIR:00100112'
p1365
sg6
S'http://www.sequenceontology.org/miso/current_release/term/$id'
p1366
sa(dp1367
g4
S'MIR:00100241'
p1368
sg6
S'http://purl.bioontology.org/ontology/SO/$id'
p1369
sa(dp1370
g4
S'MIR:00100628'
p1371
sg6
S'http://www.ebi.ac.uk/ontology-lookup/?termId=$id'
p1372
sasS'urn:miriam:obo.unit'
p1373
g652
sS'urn:miriam:zfin.phenotype'
p1374
(lp1375
(dp1376
g4
S'MIR:00100332'
p1377
sg6
S'http://zfin.org/action/genotype/show_all_phenotype?zdbID=$id'
p1378
sasS'urn:miriam:obo.sbo'
p1379
g1055
sS'urn:miriam:plasmodb'
p1380
(lp1381
(dp1382
g4
S'MIR:00100195'
p1383
sg6
S'http://plasmodb.org/plasmo/showRecord.do?name=GeneRecordClasses.GeneRecordClass&source_id=$id'
p1384
sasS'urn:miriam:ma'
p1385
(lp1386
(dp1387
g4
S'MIR:00100576'
p1388
sg6
S'http://purl.bioontology.org/ontology/MA/$id'
p1389
sa(dp1390
g4
S'MIR:00100577'
p1391
sg6
S'http://www.ebi.ac.uk/ontology-lookup/?termId=$id'
p1392
sa(dp1393
g4
S'MIR:00100578'
p1394
sg6
S'http://www.informatics.jax.org/searches/AMA.cgi?id=$id'
p1395
sasS'urn:miriam:mirbase.mature'
p1396
(lp1397
(dp1398
g4
S'MIR:00100296'
p1399
sg6
S'http://www.mirbase.org/cgi-bin/mature.pl?mature_acc=$id'
p1400
sasS'urn:miriam:fungidb'
p1401
(lp1402
(dp1403
g4
S'MIR:00100464'
p1404
sg6
S'http://fungidb.org/gene/$id'
p1405
sasS'urn:miriam:jstor'
p1406
(lp1407
(dp1408
g4
S'MIR:00100575'
p1409
sg6
S'http://www.jstor.org/stable/$id'
p1410
sasS'urn:miriam:gramene.gene'
p1411
(lp1412
(dp1413
g4
S'MIR:00100228'
p1414
sg6
S'http://www.gramene.org/db/genes/search_gene?acc=$id'
p1415
sasS'urn:miriam:kegg.module'
p1416
(lp1417
(dp1418
g4
S'MIR:00100609'
p1419
sg6
S'http://www.kegg.jp/entry/$id'
p1420
sasS'urn:miriam:mo'
p1421
(lp1422
(dp1423
g4
S'MIR:00100385'
p1424
sg6
S'http://purl.bioontology.org/ontology/MO/$id'
p1425
sa(dp1426
g4
S'MIR:00100568'
p1427
sg6
S'http://mged.sourceforge.net/ontologies/MGEDontology.php#$id'
p1428
sasS'urn:miriam:yeastintron'
p1429
(lp1430
(dp1431
g4
S'MIR:00100673'
p1432
sg6
S'http://intron.ucsc.edu/cgi-bin/yeast4.3/intronreports.pl?outputformat=full&amp;orfName=$id'
p1433
sasS'urn:miriam:miriam'
p1434
(lp1435
(dp1436
g4
S'MIR:00100005'
p1437
sg6
S'http://www.ebi.ac.uk/miriam/main/$id'
p1438
sasS'urn:miriam:isbn'
p1439
(lp1440
(dp1441
g4
S'MIR:00100092'
p1442
sg6
S'http://isbndb.com/search-all.html?kw=$id'
p1443
sa(dp1444
g4
S'MIR:00100093'
p1445
sg6
S'http://www.worldcat.org/isbn/$id'
p1446
sasS'urn:miriam:cubedb'
p1447
(lp1448
(dp1449
g4
S'MIR:00100517'
p1450
sg6
S'http://epsf.bmad.bii.a-star.edu.sg/cube/db/data/$id/'
p1451
sasS'urn:miriam:sgd.pathways'
p1452
(lp1453
(dp1454
g4
S'MIR:00100085'
p1455
sg6
S'http://pathway.yeastgenome.org/YEAST/new-image?type=PATHWAY&object=$id'
p1456
sasS'urn:miriam:doi'
p1457
(lp1458
(dp1459
g4
S'MIR:00100010'
p1460
sg6
S'http://dx.doi.org/$id'
p1461
sa(dp1462
g4
S'MIR:00100065'
p1463
sg6
S'http://hdl.handle.net/$id'
p1464
sasS'urn:miriam:dbsnp'
p1465
(lp1466
(dp1467
g4
S'MIR:00100206'
p1468
sg6
S'http://www.ncbi.nlm.nih.gov/projects/SNP/snp_ref.cgi?rs=$id'
p1469
sasS'urn:miriam:string'
p1470
(lp1471
(dp1472
g4
S'MIR:00100341'
p1473
sg6
S'http://string.embl.de/interactions/$id'
p1474
sa(dp1475
g4
S'MIR:00100342'
p1476
sg6
S'http://string-db.org/interactions/$id'
p1477
sasS'urn:miriam:sdbs'
p1478
(lp1479
(dp1480
g4
S'MIR:00100402'
p1481
sg6
S'http://riodb01.ibase.aist.go.jp/sdbs/cgi-bin/cre_frame_disp.cgi?sdbsno=$id'
p1482
sasS'urn:miriam:antibodyregistry'
p1483
(lp1484
(dp1485
g4
S'MIR:00100664'
p1486
sg6
S'http://antibodyregistry.org/AB_$id'
p1487
sasS'urn:miriam:phosphopoint.protein'
p1488
(lp1489
(dp1490
g4
S'MIR:00100500'
p1491
sg6
S'http://kinase.bioinformatics.tw/showall.jsp?type=PhosphoProtein&info=Gene&name=$id&drawing=0&sorting=0&kinome=0'
p1492
sasS'urn:miriam:sider.effect'
p1493
(lp1494
(dp1495
g4
S'MIR:00100560'
p1496
sg6
S'http://sideeffects.embl.de/se/$id/'
p1497
sasS'urn:miriam:gmd.gcms'
p1498
(lp1499
(dp1500
g4
S'MIR:00100547'
p1501
sg6
S'http://gmd.mpimp-golm.mpg.de/Spectrums/$id'
p1502
sasS'urn:miriam:rgd.strain'
p1503
(lp1504
(dp1505
g4
S'MIR:00100587'
p1506
sg6
S'http://rgd.mcw.edu/rgdweb/report/strain/main.html?id=$id'
p1507
sasS'urn:miriam:paxdb.protein'
p1508
(lp1509
(dp1510
g4
S'MIR:00100625'
p1511
sg6
S'http://pax-db.org/#!protein/$id'
p1512
sasS'urn:miriam:oma.grp'
p1513
(lp1514
(dp1515
g4
S'MIR:00100438'
p1516
sg6
S'http://omabrowser.org/cgi-bin/gateway.pl?f=DisplayGroup&p1=$id'
p1517
sasS'urn:miriam:bitterdb.cpd'
p1518
(lp1519
(dp1520
g4
S'MIR:00100443'
p1521
sg6
S'http://bitterdb.agri.huji.ac.il/bitterdb/compound.php?id=$id'
p1522
sasS'urn:miriam:greengenes'
p1523
(lp1524
(dp1525
g4
S'MIR:00100211'
p1526
sg6
S'http://greengenes.lbl.gov/cgi-bin/show_one_record_v2.pl?prokMSA_id=$id'
p1527
sasS'urn:miriam:kegg.orthology'
p1528
(lp1529
(dp1530
g4
S'MIR:00100149'
p1531
sg6
S'http://www.kegg.jp/entry/$id'
p1532
sasS'urn:miriam:sabiork.reaction'
p1533
(lp1534
(dp1535
g4
S'MIR:00100063'
p1536
sg6
S'http://sabiork.h-its.org/newSearch?q=sabioreactionid:$id'
p1537
sasS'urn:miriam:3dmet'
p1538
(lp1539
(dp1540
g4
S'MIR:00100095'
p1541
sg6
S'http://www.3dmet.dna.affrc.go.jp/cgi/show_data.php?acc=$id'
p1542
sasS'urn:miriam:rnamods'
p1543
(lp1544
(dp1545
g4
S'MIR:00100391'
p1546
sg6
S'http://mods.rna.albany.edu/mods/modifications/view/$id'
p1547
sasS'urn:miriam:dragondb.allele'
p1548
(lp1549
(dp1550
g4
S'MIR:00100382'
p1551
sg6
S'http://antirrhinum.net/cgi-bin/ace/generic/tree/DragonDB?name=$id&amp;class=Allele'
p1552
sasS'urn:miriam:huge'
p1553
(lp1554
(dp1555
g4
S'MIR:00100339'
p1556
sg6
S'http://www.kazusa.or.jp/huge/gfpage/$id/'
p1557
sasS'urn:miriam:phytozome.locus'
p1558
(lp1559
(dp1560
g4
S'MIR:00100556'
p1561
sg6
S'http://www.phytozome.net/genePage.php?crown&method=0&search=1&detail=1&searchText=locusname:$id'
p1562
sasS'urn:miriam:adw'
p1563
(lp1564
(dp1565
g4
S'MIR:00100633'
p1566
sg6
S'http://animaldiversity.ummz.umich.edu/accounts/$id/'
p1567
sasS'urn:miriam:snomedct'
p1568
(lp1569
(dp1570
g4
S'MIR:00100346'
p1571
sg6
S'http://vtsl.vetmed.vt.edu/TerminologyMgt/Browser/ISA.cfm?SCT_ConceptID=$id'
p1572
sa(dp1573
g4
S'MIR:00100347'
p1574
sg6
S'http://unknown/$id'
p1575
sa(dp1576
g4
S'MIR:00100405'
p1577
sg6
S'http://www.snomedbrowser.com/Codes/Details/$id'
p1578
sasS'urn:miriam:inchikey'
p1579
(lp1580
(dp1581
g4
S'MIR:00100501'
p1582
sg6
S'http://www.chemspider.com/inchi-resolver/Resolver.aspx?q=$id'
p1583
sa(dp1584
g4
S'MIR:00100505'
p1585
sg6
S'http://cactus.nci.nih.gov/chemical/structure/$id/names'
p1586
sasS'urn:miriam:doqcs.pathway'
p1587
(lp1588
(dp1589
g4
S'MIR:00100175'
p1590
sg6
S'http://doqcs.ncbs.res.in/template.php?&y=pathwaydetails&pn=$id'
p1591
sasS'urn:miriam:tol'
p1592
(lp1593
(dp1594
g4
S'MIR:00100525'
p1595
sg6
S'http://tolweb.org/$id'
p1596
sasS'urn:miriam:dragondb.protein'
p1597
(lp1598
(dp1599
g4
S'MIR:00100380'
p1600
sg6
S'http://antirrhinum.net/cgi-bin/ace/generic/tree/DragonDB?name=$id;class=Peptide'
p1601
sasS'urn:miriam:bitterdb.rec'
p1602
(lp1603
(dp1604
g4
S'MIR:00100442'
p1605
sg6
S'http://bitterdb.agri.huji.ac.il/bitterdb/Receptor.php?id=$id'
p1606
sasS'urn:miriam:gmd.ref'
p1607
(lp1608
(dp1609
g4
S'MIR:00100548'
p1610
sg6
S'http://gmd.mpimp-golm.mpg.de/ReferenceSubstances/$id'
p1611
sasS'urn:miriam:cygd'
p1612
(lp1613
(dp1614
g4
S'MIR:00100337'
p1615
sg6
S'http://mips.gsf.de/genre/proj/yeast/singleGeneReport.html?entry=$id'
p1616
sa(dp1617
g4
S'MIR:00100338'
p1618
sg6
S'http://mips.helmholtz-muenchen.de/genre/proj/yeast/singleGeneReport.html?entry=$id'
p1619
sasS'urn:miriam:pmdb'
p1620
(lp1621
(dp1622
g4
S'MIR:00100247'
p1623
sg6
S'http://bl209.frm.uniroma1.it/PMDB/user/search.php?idsearch=$id'
p1624
sasS'urn:miriam:tair.locus'
p1625
(lp1626
(dp1627
g4
S'MIR:00100078'
p1628
sg6
S'http://arabidopsis.org/servlets/TairObject?type=locus&name=$id'
p1629
sasS'urn:miriam:cath.superfamily'
p1630
(lp1631
(dp1632
g4
S'MIR:00100268'
p1633
sg6
S'http://www.cathdb.info/cathnode/$id'
p1634
sasS'urn:miriam:charprot'
p1635
(lp1636
(dp1637
g4
S'MIR:00100436'
p1638
sg6
S'http://www.jcvi.org/charprotdb/index.cgi/view/$id'
p1639
sasS'urn:miriam:clinicaltrials'
p1640
(lp1641
(dp1642
g4
S'MIR:00100179'
p1643
sg6
S'http://clinicaltrials.gov/ct2/show/$id'
p1644
sasS'urn:miriam:flybase'
p1645
(lp1646
(dp1647
g4
S'MIR:00100050'
p1648
sg6
S'http://flybase.org/reports/$id.html'
p1649
sasS'urn:miriam:panther.node'
p1650
(lp1651
(dp1652
g4
S'MIR:00100475'
p1653
sg6
S'http://www.pantree.org/node/annotationNode.jsp?id=$id'
p1654
sasS'urn:miriam:peroxibase'
p1655
(lp1656
(dp1657
g4
S'MIR:00100281'
p1658
sg6
S'http://peroxibase.toulouse.inra.fr/browse/process/view_perox.php?id=$id'
p1659
sasS'urn:miriam:obo.pr'
p1660
(lp1661
(dp1662
g4
S'MIR:00100184'
p1663
sg6
S'http://pir.georgetown.edu/cgi-bin/pro/entry_pro?id=$id'
p1664
sa(dp1665
g4
S'MIR:00100240'
p1666
sg6
S'http://purl.bioontology.org/ontology/PR/$id'
p1667
sasS'urn:miriam:miriam.datatype'
p1668
g1435
sS'urn:miriam:obo.pw'
p1669
(lp1670
(dp1671
g4
S'MIR:00100309'
p1672
sg6
S'http://rgd.mcw.edu/rgdweb/ontology/annot.html?acc_id=$id'
p1673
sa(dp1674
g4
S'MIR:00100310'
p1675
sg6
S'http://www.ebi.ac.uk/ontology-lookup/?termId=$id'
p1676
sa(dp1677
g4
S'MIR:00100311'
p1678
sg6
S'http://purl.bioontology.org/ontology/PW/$id'
p1679
sasS'urn:miriam:irefweb'
p1680
(lp1681
(dp1682
g4
S'MIR:00100156'
p1683
sg6
S'http://wodaklab.org/iRefWeb/interaction/show/$id'
p1684
sasS'urn:miriam:subtilist'
p1685
(lp1686
(dp1687
g4
S'MIR:00100557'
p1688
sg6
S'http://genolist.pasteur.fr/SubtiList/genome.cgi?external_query+$id'
p1689
sasS'urn:miriam:maizegdb.locus'
p1690
(lp1691
(dp1692
g4
S'MIR:00100223'
p1693
sg6
S'http://www.maizegdb.org/cgi-bin/displaylocusrecord.cgi?id=$id'
p1694
sasS'urn:miriam:biomodels.vocabulary'
p1695
(lp1696
(dp1697
g4
S'MIR:00100661'
p1698
sg6
S'http://biomodels.net/rdf/vocabulary.rdf#$id'
p1699
sasS'urn:miriam:darc'
p1700
(lp1701
(dp1702
g4
S'MIR:00100465'
p1703
sg6
S'http://darcsite.genzentrum.lmu.de/darc/view.php?id=$id'
p1704
sasS'urn:miriam:obo.po'
p1705
(lp1706
(dp1707
g4
S'MIR:00100389'
p1708
sg6
S'http://www.plantontology.org/amigo/go.cgi?view=details&query=$id'
p1709
sa(dp1710
g4
S'MIR:00100390'
p1711
sg6
S'http://purl.bioontology.org/ontology/PO/$id'
p1712
sa(dp1713
g4
S'MIR:00100676'
p1714
sg6
S'http://www.ebi.ac.uk/ontology-lookup/?termId=$id'
p1715
sasS'urn:miriam:bto'
p1716
g951
sS'urn:miriam:dragondb.locus'
p1717
(lp1718
(dp1719
g4
S'MIR:00100381'
p1720
sg6
S'http://antirrhinum.net/cgi-bin/ace/generic/tree/DragonDB?name=$id&amp;class=Locus'
p1721
sasS'urn:miriam:eco'
p1722
g1121
sS'urn:miriam:homologene'
p1723
(lp1724
(dp1725
g4
S'MIR:00100355'
p1726
sg6
S'http://www.ncbi.nlm.nih.gov/homologene/$id'
p1727
sasS'urn:miriam:biosystems'
p1728
(lp1729
(dp1730
g4
S'MIR:00100128'
p1731
sg6
S'http://www.ncbi.nlm.nih.gov/biosystems/$id'
p1732
sasS'urn:miriam:hgnc'
p1733
(lp1734
(dp1735
g4
S'MIR:00100111'
p1736
sg6
S'http://www.genenames.org/cgi-bin/gene_symbol_report?hgnc_id=$id'
p1737
sasS'urn:miriam:elm'
p1738
(lp1739
(dp1740
g4
S'MIR:00100321'
p1741
sg6
S'http://elm.eu.org/elms/elmPages/$id.html'
p1742
sasS'urn:miriam:iuphar.family'
p1743
(lp1744
(dp1745
g4
S'MIR:00100400'
p1746
sg6
S'http://www.iuphar-db.org/DATABASE/FamilyMenuForward?familyId=$id'
p1747
sasS'urn:miriam:eggnog'
p1748
(lp1749
(dp1750
g4
S'MIR:00100260'
p1751
sg6
S'http://eggnog.embl.de/version_3.0/cgi/search.py?search_term_0=$id'
p1752
sa(dp1753
g4
S'MIR:00100298'
p1754
sg6
S'http://eggnog.embl.de/cgi_bin/display_single_node.pl?node=$id'
p1755
sasS'urn:miriam:cgsc'
p1756
(lp1757
(dp1758
g4
S'MIR:00100377'
p1759
sg6
S'http://cgsc.biology.yale.edu/Strain.php?ID=$id'
p1760
sasS'urn:miriam:matrixdb.association'
p1761
(lp1762
(dp1763
g4
S'MIR:00100098'
p1764
sg6
S'http://matrixdb.ibcp.fr/cgi-bin/model/report/default?name=$id&class=Association'
p1765
sasS'urn:miriam:cazy'
p1766
(lp1767
(dp1768
g4
S'MIR:00100252'
p1769
sg6
S'http://www.cazy.org/$id.html'
p1770
sasS'urn:miriam:gmd.profile'
p1771
(lp1772
(dp1773
g4
S'MIR:00100546'
p1774
sg6
S'http://gmd.mpimp-golm.mpg.de/profile/default.aspx?XemlId=$id'
p1775
sasS'urn:miriam:iuphar.ligand'
p1776
(lp1777
(dp1778
g4
S'MIR:00100592'
p1779
sg6
S'http://www.iuphar-db.org/DATABASE/LigandDisplayForward?ligandId=$id'
p1780
sasS'urn:miriam:omim'
p1781
(lp1782
(dp1783
g4
S'MIR:00100024'
p1784
sg6
S'http://omim.org/entry/$id'
p1785
sa(dp1786
g4
S'MIR:00100480'
p1787
sg6
S'http://us-east.omim.org/entry/$id'
p1788
sa(dp1789
g4
S'MIR:00100481'
p1790
sg6
S'http://europe.omim.org/entry/$id'
p1791
sasS'urn:miriam:oridb.schizo'
p1792
(lp1793
(dp1794
g4
S'MIR:00100467'
p1795
sg6
S'http://pombe.oridb.org/details.php?id=$id'
p1796
sasS'urn:miriam:doid'
p1797
g373
sS'urn:miriam:dbd'
p1798
(lp1799
(dp1800
g4
S'MIR:00100590'
p1801
sg6
S'http://www.transcriptionfactor.org/index.cgi?Search/Domain+domain:$id+cat:DBD'
p1802
sasS'urn:miriam:ctd.chemical'
p1803
(lp1804
(dp1805
g4
S'MIR:00100129'
p1806
sg6
S'http://ctdbase.org/detail.go?type=chem&acc=$id'
p1807
sasS'urn:miriam:kegg.glycan'
p1808
(lp1809
(dp1810
g4
S'MIR:00100036'
p1811
sg6
S'http://www.kegg.jp/entry/$id'
p1812
sasS'urn:miriam:stitch'
p1813
(lp1814
(dp1815
g4
S'MIR:00100343'
p1816
sg6
S'http://stitch.embl.de/interactions/$id'
p1817
sasS'urn:miriam:tair.protein'
p1818
(lp1819
(dp1820
g4
S'MIR:00100076'
p1821
sg6
S'http://arabidopsis.org/servlets/TairObject?accession=$id'
p1822
sasS'urn:miriam:echobase'
p1823
(lp1824
(dp1825
g4
S'MIR:00100259'
p1826
sg6
S'http://www.york.ac.uk/res/thomas/Gene.cfm?recordID=$id'
p1827
sasS'urn:miriam:fsnp'
p1828
(lp1829
(dp1830
g4
S'MIR:00100637'
p1831
sg6
S'http://compbio.cs.queensu.ca/cgi-bin/compbio/search/main.cgi?search_mode=id&amp;id_type=snp_id&amp;id_val=$id'
p1832
sasS'urn:miriam:imgt.hla'
p1833
(lp1834
(dp1835
g4
S'MIR:00100425'
p1836
sg6
S'http://www.ebi.ac.uk/cgi-bin/imgt/hla/get_allele.cgi?$id'
p1837
sasS'urn:miriam:lgic'
p1838
(lp1839
(dp1840
g4
S'MIR:00100118'
p1841
sg6
S'http://www.ebi.ac.uk/compneur-srv/LGICdb/HTML/$id.php'
p1842
sasS'urn:lsid:ec-code.org'
p1843
g1024
sS'urn:miriam:psimi'
p1844
(lp1845
(dp1846
g4
S'MIR:00100142'
p1847
sg6
S'http://www.ebi.ac.uk/ontology-lookup/?termId=$id'
p1848
sa(dp1849
g4
S'MIR:00100564'
p1850
sg6
S'http://purl.bioontology.org/ontology/PPIO/$id'
p1851
sasS'urn:miriam:reactome'
p1852
(lp1853
(dp1854
g4
S'MIR:00100026'
p1855
sg6
S'http://www.reactome.org/cgi-bin/eventbrowser_st_id?FROM_REACTOME=1&ST_ID=$id'
p1856
sasS'urn:miriam:mipmod'
p1857
(lp1858
(dp1859
g4
S'MIR:00100327'
p1860
sg6
S'http://bioinfo.iitk.ac.in/MIPModDB/result.php?code=$id'
p1861
sasS'urn:miriam:pid.pathway'
p1862
(lp1863
(dp1864
g4
S'MIR:00100173'
p1865
sg6
S'http://pid.nci.nih.gov/search/pathway_landing.shtml?what=graphic&jpg=on&pathway_id=$id'
p1866
sasS'urn:miriam:agd'
p1867
(lp1868
(dp1869
g4
S'MIR:00100249'
p1870
sg6
S'http://agd.vital-it.ch/Ashbya_gossypii/geneview?gene=$id'
p1871
sasS'urn:miriam:bioportal'
p1872
(lp1873
(dp1874
g4
S'MIR:00100244'
p1875
sg6
S'http://bioportal.bioontology.org/ontologies/$id'
p1876
sasS'urn:miriam:disprot'
p1877
(lp1878
(dp1879
g4
S'MIR:00100258'
p1880
sg6
S'http://www.disprot.org/protein.php?id=$id'
p1881
sasS'urn:miriam:nextprot'
p1882
(lp1883
(dp1884
g4
S'MIR:00100300'
p1885
sg6
S'http://www.nextprot.org/db/entry/$id'
p1886
sasS'urn:miriam:atcc'
p1887
(lp1888
(dp1889
g4
S'MIR:00100365'
p1890
sg6
S'http://www.lgcstandards-atcc.org/Products/All/$id.aspx'
p1891
sasS'urn:miriam:phosphosite.protein'
p1892
g328
sS'urn:miriam:giardiadb'
p1893
(lp1894
(dp1895
g4
S'MIR:00100196'
p1896
sg6
S'http://giardiadb.org/giardiadb/showRecord.do?name=GeneRecordClasses.GeneRecordClass&source_id=$id'
p1897
sasS'urn:miriam:omia'
p1898
(lp1899
(dp1900
g4
S'MIR:00100185'
p1901
sg6
S'http://omia.angis.org.au/$id/'
p1902
sa(dp1903
g4
S'MIR:00100186'
p1904
sg6
S'http://www.ncbi.nlm.nih.gov/sites/entrez?cmd=Retrieve&db=omia&dopt=Detailed&list_uids=$id'
p1905
sasS'urn:miriam:p3db.site'
p1906
(lp1907
(dp1908
g4
S'MIR:00100643'
p1909
sg6
S'http://www.p3db.org/phosphosite.php?id=$id&ref=0'
p1910
sasS'urn:miriam:pocketome'
p1911
(lp1912
(dp1913
g4
S'MIR:00100520'
p1914
sg6
S'http://www.pocketome.org/files/$id.html'
p1915
sasS'urn:miriam:obo.chebi'
p1916
(lp1917
(dp1918
g4
S'MIR:00100009'
p1919
sg6
S'http://www.ebi.ac.uk/chebi/searchId.do?chebiId=$id'
p1920
sa(dp1921
g4
S'MIR:00100158'
p1922
sg6
S'http://www.ebi.ac.uk/ontology-lookup/?termId=$id'
p1923
sa(dp1924
g4
S'MIR:00100565'
p1925
sg6
S'http://purl.bioontology.org/ontology/CHEBI/$id'
p1926
sasS'urn:miriam:drsc'
p1927
(lp1928
(dp1929
g4
S'MIR:00100466'
p1930
sg6
S'http://www.flyrnai.org/cgi-bin/RNAi_gene_lookup_public.pl?gname=$id'
p1931
sasS'urn:miriam:smart'
p1932
(lp1933
(dp1934
g4
S'MIR:00100151'
p1935
sg6
S'http://smart.embl-heidelberg.de/smart/do_annotation.pl?DOMAIN=$id'
p1936
sasS'urn:miriam:sprint'
p1937
(lp1938
(dp1939
g4
S'MIR:00100089'
p1940
sg6
S'http://www.bioinf.manchester.ac.uk/cgi-bin/dbbrowser/sprint/searchprintss.cgi?prints_accn=$id&display_opts=Prints&category=None&queryform=false&regexpr=off'
p1941
sasS'urn:miriam:ndc'
p1942
(lp1943
(dp1944
g4
S'MIR:00100554'
p1945
sg6
S'http://www.hipaaspace.com/Medical_Billing/Coding/National.Drug.Codes/$id'
p1946
sa(dp1947
g4
S'MIR:00100555'
p1948
sg6
S'http://healthprovidersdata.com/hipaa/codes/NDC_$id.aspx'
p1949
sasS'urn:miriam:mgd'
p1950
(lp1951
(dp1952
g4
S'MIR:00100062'
p1953
sg6
S'http://www.informatics.jax.org/marker/$id'
p1954
sasS'urn:miriam:dictybase.gene'
p1955
(lp1956
(dp1957
g4
S'MIR:00100367'
p1958
sg6
S'http://dictybase.org/gene/$id'
p1959
sasS'urn:miriam:ncbiprotein'
p1960
(lp1961
(dp1962
g4
S'MIR:00100439'
p1963
sg6
S'http://www.ncbi.nlm.nih.gov/protein/$id'
p1964
sasS'urn:miriam:worfdb'
p1965
(lp1966
(dp1967
g4
S'MIR:00100370'
p1968
sg6
S'http://worfdb.dfci.harvard.edu/index.php?search_type=name&page=showresultrc&race_query=$id'
p1969
sasS'urn:miriam:t3db'
p1970
(lp1971
(dp1972
g4
S'MIR:00100136'
p1973
sg6
S'http://www.t3db.org/toxins/$id'
p1974
sasS'urn:miriam:arachnoserver'
p1975
(lp1976
(dp1977
g4
S'MIR:00100250'
p1978
sg6
S'http://www.arachnoserver.org/toxincard.html?id=$id'
p1979
sasS'urn:miriam:efo'
p1980
(lp1981
(dp1982
g4
S'MIR:00100509'
p1983
sg6
S'http://www.ebi.ac.uk/ontology-lookup/?termId=EFO:$id'
p1984
sa(dp1985
g4
S'MIR:00100510'
p1986
sg6
S'http://purl.bioontology.org/ontology/EFO/efo:EFO_$id'
p1987
sa(dp1988
g4
S'MIR:00100511'
p1989
sg6
S'http://www.ebi.ac.uk/efo/EFO_$id'
p1990
sasS'urn:miriam:drugbank'
p1991
(lp1992
(dp1993
g4
S'MIR:00100133'
p1994
sg6
S'http://www.drugbank.ca/drugs/$id'
p1995
sasS'urn:miriam:caps'
p1996
(lp1997
(dp1998
g4
S'MIR:00100516'
p1999
sg6
S'http://www.bioinsilico.org/cgi-bin/CAPSDB/getCAPScluster?nidcl=$id'
p2000
sasS'urn:miriam:pgn'
p2001
(lp2002
(dp2003
g4
S'MIR:00100372'
p2004
sg6
S'http://pgn.cornell.edu/unigene/unigene_assembly_contigs.pl?unigene_id=$id'
p2005
sasS'urn:miriam:nuclearbd'
p2006
(lp2007
(dp2008
g4
S'MIR:00100453'
p2009
sg6
S'http://www.receptors.org/nucleardb/proteins/$id'
p2010
sasS'urn:miriam:vfdb.gene'
p2011
(lp2012
(dp2013
g4
S'MIR:00100607'
p2014
sg6
S'http://www.mgc.ac.cn/cgi-bin/VFs/gene.cgi?GeneID=$id'
p2015
sasS'urn:miriam:pirsf'
p2016
(lp2017
(dp2018
g4
S'MIR:00100025'
p2019
sg6
S'http://pir.georgetown.edu/cgi-bin/ipcSF?id=$id'
p2020
sasS'urn:miriam:panther.pathway'
p2021
(lp2022
(dp2023
g4
S'MIR:00100461'
p2024
sg6
S'http://www.pantherdb.org/pathway/pathwayDiagram.jsp?catAccession=$id'
p2025
sasS'urn:miriam:gold.genome'
p2026
(lp2027
(dp2028
g4
S'MIR:00100521'
p2029
sg6
S'http://www.genomesonline.org/cgi-bin/GOLD/GOLDCards.cgi?goldstamp=$id'
p2030
sasS'urn:miriam:go.ref'
p2031
(lp2032
(dp2033
g4
S'MIR:00100584'
p2034
sg6
S'http://www.geneontology.org/cgi-bin/references.cgi#$id'
p2035
sasS'urn:miriam:pathema'
p2036
(lp2037
(dp2038
g4
S'MIR:00100679'
p2039
sg6
S'http://pathema.jcvi.org/$id'
p2040
sasS'urn:miriam:genprop'
p2041
(lp2042
(dp2043
g4
S'MIR:00100574'
p2044
sg6
S'http://cmr.jcvi.org/tigr-scripts/CMR/shared/GenomePropDefinition.cgi?prop_acc=$id'
p2045
sasS'urn:miriam:insdc.sra'
p2046
(lp2047
(dp2048
g4
S'MIR:00100312'
p2049
sg6
S'http://www.ncbi.nlm.nih.gov/sra/$id?&report=full'
p2050
sa(dp2051
g4
S'MIR:00100313'
p2052
sg6
S'http://www.ebi.ac.uk/ena/data/view/$id'
p2053
sa(dp2054
g4
S'MIR:00100314'
p2055
sg6
S'http://trace.ddbj.nig.ac.jp/DRASearch/experiment?acc=$id'
p2056
sasS'urn:miriam:metabolights'
p2057
(lp2058
(dp2059
g4
S'MIR:00100486'
p2060
sg6
S'http://www.ebi.ac.uk/metabolights/$id'
p2061
sasS'urn:miriam:ttd.drug'
p2062
(lp2063
(dp2064
g4
S'MIR:00100123'
p2065
sg6
S'http://bidd.nus.edu.sg/group/cjttd/ZFTTDDRUG.asp?ID=$id'
p2066
sasS'urn:miriam:rgd'
p2067
(lp2068
(dp2069
g4
S'MIR:00100075'
p2070
sg6
S'http://rgd.mcw.edu/rgdweb/report/gene/main.html?id=$id'
p2071
sasS'urn:miriam:umbbd.pathway'
p2072
(lp2073
(dp2074
g4
S'MIR:00100419'
p2075
sg6
S'http://umbbd.msi.umn.edu/servlets/pageservlet?ptype=p&pathway_abbr=$id'
p2076
sa(dp2077
g4
S'MIR:00100420'
p2078
sg6
S'http://umbbd.ethz.ch/servlets/pageservlet?ptype=p&pathway_abbr=$id'
p2079
sasS'urn:miriam:taxonomy'
p2080
(lp2081
(dp2082
g4
S'MIR:00100007'
p2083
sg6
S'http://www.ncbi.nlm.nih.gov/Taxonomy/Browser/wwwtax.cgi?mode=Info&id=$id'
p2084
sa(dp2085
g4
S'MIR:00100019'
p2086
sg6
S'http://www.uniprot.org/taxonomy/$id'
p2087
sa(dp2088
g4
S'MIR:00100299'
p2089
sg6
S'http://www.ebi.ac.uk/ena/data/view/Taxon:$id'
p2090
sa(dp2091
g4
S'MIR:00100507'
p2092
sg6
S'http://purl.bioontology.org/ontology/NCBITAXON/obo:NCBITaxon_$id'
p2093
sasS'urn:miriam:ordb'
p2094
(lp2095
(dp2096
g4
S'MIR:00100640'
p2097
sg6
S'http://senselab.med.yale.edu/OrDB/eavData.aspx?o=$id'
p2098
sasS'urn:miriam:norine'
p2099
(lp2100
(dp2101
g4
S'MIR:00100639'
p2102
sg6
S'http://bioinfo.lifl.fr/norine/result.jsp?ID=$id'
p2103
sasS'urn:miriam:obo.clo'
p2104
g1275
sS'urn:miriam:unite'
p2105
(lp2106
(dp2107
g4
S'MIR:00100449'
p2108
sg6
S'http://unite.ut.ee/bl_forw.php?nimi=$id'
p2109
sasS'urn:miriam:pride'
p2110
(lp2111
(dp2112
g4
S'MIR:00100094'
p2113
sg6
S'http://www.ebi.ac.uk/pride/archive/assays/$id'
p2114
sasS'urn:miriam:goa'
p2115
(lp2116
(dp2117
g4
S'MIR:00100253'
p2118
sg6
S'http://www.ebi.ac.uk/QuickGO/GProtein?ac=$id'
p2119
sasS'urn:miriam:signaling-gateway'
p2120
(lp2121
(dp2122
g4
S'MIR:00100073'
p2123
sg6
S'http://www.signaling-gateway.org/molecule/query?afcsid=$id'
p2124
sasS'urn:miriam:biosample'
p2125
(lp2126
(dp2127
g4
S'MIR:00100447'
p2128
sg6
S'http://www.ebi.ac.uk/biosamples/browse.html?keywords=$id'
p2129
sasS'urn:miriam:homd.taxon'
p2130
(lp2131
(dp2132
g4
S'MIR:00100217'
p2133
sg6
S'http://www.homd.org/modules.php?op=modload&name=HOMD&file=index&oraltaxonid=$id&view=dynamic'
p2134
sasS'urn:miriam:hinv.protein'
p2135
(lp2136
(dp2137
g4
S'MIR:00100215'
p2138
sg6
S'http://h-invitational.jp/hinv/protein/protein_view.cgi?hip_id=$id'
p2139
sasS'urn:miriam:refseq'
p2140
(lp2141
(dp2142
g4
S'MIR:00100067'
p2143
sg6
S'http://www.ncbi.nlm.nih.gov/entrez/viewer.fcgi?val=$id'
p2144
sasS'urn:miriam:ensembl.plant'
p2145
(lp2146
(dp2147
g4
S'MIR:00100264'
p2148
sg6
S'http://plants.ensembl.org/id/$id'
p2149
sasS'urn:miriam:aclame'
p2150
(lp2151
(dp2152
g4
S'MIR:00100091'
p2153
sg6
S'http://aclame.ulb.ac.be/perl/Aclame/Genomes/mge_view.cgi?view=info&id=$id'
p2154
sasS'urn:miriam:scop'
p2155
(lp2156
(dp2157
g4
S'MIR:00100470'
p2158
sg6
S'http://scop.mrc-lmb.cam.ac.uk/scop/search.cgi?sunid=$id'
p2159
sa(dp2160
g4
S'MIR:00100471'
p2161
sg6
S'http://scop.berkeley.edu/sunid=$id'
p2162
sa(dp2163
g4
S'MIR:00100472'
p2164
sg6
S'http://scop.bic.nus.edu.sg/search.cgi?sunid=$id'
p2165
sasS'urn:miriam:rouge'
p2166
(lp2167
(dp2168
g4
S'MIR:00100375'
p2169
sg6
S'http://www.kazusa.or.jp/rouge/gfpage/$id/'
p2170
sasS'urn:miriam:panther.family'
p2171
g295
sS'urn:miriam:compulyeast'
p2172
(lp2173
(dp2174
g4
S'MIR:00100257'
p2175
sg6
S'http://compluyeast2dpage.dacya.ucm.es/cgi-bin/2d/2d.cgi?ac=$id'
p2176
sasS'urn:miriam:obo.fma'
p2177
(lp2178
(dp2179
g4
S'MIR:00100097'
p2180
sg6
S'http://www.ebi.ac.uk/ontology-lookup/?termId=$id'
p2181
sa(dp2182
g4
S'MIR:00100236'
p2183
sg6
S'http://purl.bioontology.org/ontology/FMA_subset/$id'
p2184
sasS'urn:miriam:allergome'
p2185
(lp2186
(dp2187
g4
S'MIR:00100429'
p2188
sg6
S'http://www.allergome.org/script/dettaglio.php?id_molecule=$id'
p2189
sasS'urn:miriam:jaxmice'
p2190
(lp2191
(dp2192
g4
S'MIR:00100432'
p2193
sg6
S'http://jaxmice.jax.org/strain/$id.html'
p2194
sasS'urn:miriam:dbprobe'
p2195
(lp2196
(dp2197
g4
S'MIR:00100205'
p2198
sg6
S'http://www.ncbi.nlm.nih.gov/probe/?term=$id'
p2199
sasS'urn:miriam:umbbd.enzyme'
p2200
(lp2201
(dp2202
g4
S'MIR:00100417'
p2203
sg6
S'http://umbbd.msi.umn.edu/servlets/pageservlet?ptype=ep&enzymeID=$id'
p2204
sa(dp2205
g4
S'MIR:00100418'
p2206
sg6
S'http://umbbd.ethz.ch/servlets/pageservlet?ptype=ep&enzymeID=$id'
p2207
sasS'urn:miriam:pseudomonas'
p2208
(lp2209
(dp2210
g4
S'MIR:00100226'
p2211
sg6
S'http://www.pseudomonas.com/getAnnotation.do?locusID=$id'
p2212
sasS'urn:miriam:pass2'
p2213
(lp2214
(dp2215
g4
S'MIR:00100603'
p2216
sg6
S'http://caps.ncbs.res.in/pass2/superfamily/superfamilydetail.php?superfamilyId=$id'
p2217
sasS'urn:miriam:psimod'
p2218
g112
sS'urn:miriam:oma.protein'
p2219
(lp2220
(dp2221
g4
S'MIR:00100437'
p2222
sg6
S'http://omabrowser.org/cgi-bin/gateway.pl?f=DisplayEntry&p1=$id'
p2223
sasS'urn:miriam:yetfasco'
p2224
(lp2225
(dp2226
g4
S'MIR:00100434'
p2227
sg6
S'http://yetfasco.ccbr.utoronto.ca/showPFM.php?mot=$id'
p2228
sasS'urn:miriam:biomodels.db'
p2229
(lp2230
(dp2231
g4
S'MIR:00100006'
p2232
sg6
S'http://www.ebi.ac.uk/biomodels-main/$id'
p2233
sa(dp2234
g4
S'MIR:00100107'
p2235
sg6
S'http://biomodels.caltech.edu/$id'
p2236
sa(dp2237
g4
S'MIR:00100674'
p2238
sg6
S'http://cu.biomodels.bio2rdf.org/describe/?url=http://bio2rdf.org/biomodels:$id'
p2239
sasS'urn:miriam:resid'
p2240
(lp2241
(dp2242
g4
S'MIR:00100074'
p2243
sg6
S"http://srs.ebi.ac.uk/srsbin/cgi-bin/wgetz?-id+6JSUg1NA6u4+-e+[RESID:'$id']"
p2244
sa(dp2245
g4
S'MIR:00100653'
p2246
sg6
S'http://pir0.georgetown.edu/cgi-bin/resid?id=$id'
p2247
sasS'urn:miriam:bind'
p2248
(lp2249
(dp2250
g4
S'MIR:00100008'
p2251
sg6
S'http://www.bind.ca/Action?identifier=bindid&idsearch=$id'
p2252
sasS'urn:miriam:pharmgkb.disease'
p2253
(lp2254
(dp2255
g4
S'MIR:00100121'
p2256
sg6
S'http://www.pharmgkb.org/disease/$id'
p2257
sasS'urn:miriam:sider.drug'
p2258
(lp2259
(dp2260
g4
S'MIR:00100559'
p2261
sg6
S'http://sideeffects.embl.de/drugs/$id/'
p2262
sasS'urn:miriam:obo.mi'
p2263
g1845
sS'urn:miriam:bold.taxonomy'
p2264
(lp2265
(dp2266
g4
S'MIR:00100203'
p2267
sg6
S'http://www.boldsystems.org/index.php/Taxbrowser_Taxonpage?taxid=$id'
p2268
sasS'urn:miriam:pubchem.substance'
p2269
(lp2270
(dp2271
g4
S'MIR:00100058'
p2272
sg6
S'http://pubchem.ncbi.nlm.nih.gov/summary/summary.cgi?sid=$id'
p2273
sasS'urn:miriam:gramene.qtl'
p2274
(lp2275
(dp2276
g4
S'MIR:00100230'
p2277
sg6
S'http://www.gramene.org/db/qtl/qtl_display?qtl_accession_id=$id'
p2278
sasS'urn:miriam:degradome'
p2279
(lp2280
(dp2281
g4
S'MIR:00100589'
p2282
sg6
S'http://degradome.uniovi.es/cgi-bin/protease/$id'
p2283
sasS'urn:miriam:trichdb'
p2284
(lp2285
(dp2286
g4
S'MIR:00100199'
p2287
sg6
S'http://trichdb.org/trichdb/showRecord.do?name=GeneRecordClasses.GeneRecordClass&source_id=$id'
p2288
sasS'urn:miriam:atfdb.family'
p2289
(lp2290
(dp2291
g4
S'MIR:00100399'
p2292
sg6
S'http://www.bioguo.org/AnimalTFDB/family.php?fam=$id'
p2293
sasS'urn:miriam:sheepqtldb'
p2294
(lp2295
(dp2296
g4
S'MIR:00100648'
p2297
sg6
S'http://www.animalgenome.org/cgi-bin/QTLdb/OA/qdetails?QTL_ID=$id'
p2298
sasS'urn:miriam:kegg.environ'
p2299
(lp2300
(dp2301
g4
S'MIR:00100506'
p2302
sg6
S'http://www.kegg.jp/entry/$id'
p2303
sasS'urn:miriam:kegg.genome'
p2304
(lp2305
(dp2306
g4
S'MIR:00100303'
p2307
sg6
S'http://www.kegg.jp/entry/$id'
p2308
sasS'urn:miriam:kegg.metagenome'
p2309
(lp2310
(dp2311
g4
S'MIR:00100304'
p2312
sg6
S'http://www.kegg.jp/entry/$id'
p2313
sasS'urn:miriam:so'
p2314
g1363
sS'urn:miriam:inchi'
p2315
(lp2316
(dp2317
g4
S'MIR:00100491'
p2318
sg6
S'http://rdf.openmolecules.net/?$id'
p2319
sa(dp2320
g4
S'MIR:00100492'
p2321
sg6
S'http://www.chemspider.com/$id'
p2322
sa(dp2323
g4
S'MIR:00100493'
p2324
sg6
S'http://webbook.nist.gov/cgi/cbook.cgi?$id'
p2325
sa(dp2326
g4
S'MIR:00100494'
p2327
sg6
S'http://www.ebi.ac.uk/chebi/advancedSearchFT.do?searchString=$id'
p2328
sasS'urn:miriam:cas'
p2329
(lp2330
(dp2331
g4
S'MIR:00100301'
p2332
sg6
S'http://commonchemistry.org/ChemicalDetail.aspx?ref=$id'
p2333
sa(dp2334
g4
S'MIR:00100302'
p2335
sg6
S'http://www.ncbi.nlm.nih.gov/sites/entrez?db=pccompound&term=$id'
p2336
sasS'urn:miriam:napp'
p2337
(lp2338
(dp2339
g4
S'MIR:00100318'
p2340
sg6
S'http://napp.u-psud.fr/Niveau2.php?specie=$id'
p2341
sasS'urn:miriam:ncbigene'
p2342
g896
sS'urn:miriam:funcbase.yeast'
p2343
(lp2344
(dp2345
g4
S'MIR:00100599'
p2346
sg6
S'http://func.mshri.on.ca/yeast/genes/list_functional_scores/$id'
p2347
sasS'urn:miriam:noncode'
p2348
(lp2349
(dp2350
g4
S'MIR:00100319'
p2351
sg6
S'http://www.noncode.org/NONCODERv3/ncrna.php?ncid=$id'
p2352
sasS'urn:miriam:orphanet'
p2353
(lp2354
(dp2355
g4
S'MIR:00100279'
p2356
sg6
S'http://www.orpha.net/consor/cgi-bin/OC_Exp.php?Lng=EN&Expert=$id'
p2357
sasS'urn:miriam:yrcpdr'
p2358
(lp2359
(dp2360
g4
S'MIR:00100594'
p2361
sg6
S'http://yeastrc.org/pdr/viewProtein.do?id=$id'
p2362
sasS'urn:miriam:chembl.target'
p2363
(lp2364
(dp2365
g4
S'MIR:00100116'
p2366
sg6
S'https://www.ebi.ac.uk/chembl//target/inspect/$id'
p2367
sa(dp2368
g4
S'MIR:00100485'
p2369
sg6
S'http://linkedchemistry.info/chembl/chemblid/$id'
p2370
sasS'urn:miriam:wormbase'
p2371
(lp2372
(dp2373
g4
S'MIR:00100038'
p2374
sg6
S'http://www.wormbase.org/db/gene/gene?name=$id;class=Gene'
p2375
sa(dp2376
g4
S'MIR:00100039'
p2377
sg6
S'http://wormbase.sanger.ac.uk/db/gene/gene?name=$id;class=Gene'
p2378
sa(dp2379
g4
S'MIR:00100040'
p2380
sg6
S'http://imbb.wormbase.org/db/gene/gene?name=$id;class=Gene'
p2381
sa(dp2382
g4
S'MIR:00100041'
p2383
sg6
S'http://caltech.wormbase.org/db/gene/gene?name=$id;class=Gene'
p2384
sa(dp2385
g4
S'MIR:00100042'
p2386
sg6
S'http://crfb-3.univ-mrs.fr/db/gene/gene?name=$id;class=Gene'
p2387
sasS'urn:miriam:apd'
p2388
(lp2389
(dp2390
g4
S'MIR:00100359'
p2391
sg6
S'http://aps.unmc.edu/AP/database/query_output.php?ID=$id'
p2392
sasS'urn:miriam:hgmd'
p2393
(lp2394
(dp2395
g4
S'MIR:00100512'
p2396
sg6
S'http://www.hgmd.cf.ac.uk/ac/gene.php?gene=$id'
p2397
sasS'urn:miriam:kegg.reaction'
p2398
(lp2399
(dp2400
g4
S'MIR:00100022'
p2401
sg6
S'http://www.kegg.jp/entry/$id'
p2402
sasS'urn:miriam:xenbase'
p2403
(lp2404
(dp2405
g4
S'MIR:00100232'
p2406
sg6
S'http://www.xenbase.org/gene/showgene.do?method=displayGeneSummary&geneId=$id'
p2407
sasS'urn:miriam:gpcrdb'
p2408
(lp2409
(dp2410
g4
S'MIR:00100271'
p2411
sg6
S'http://www.gpcr.org/7tm/proteins/$id'
p2412
sasS'urn:miriam:hpa'
p2413
(lp2414
(dp2415
g4
S'MIR:00100431'
p2416
sg6
S'http://www.proteinatlas.org/$id'
p2417
sasS'urn:miriam:hssp'
p2418
(lp2419
(dp2420
g4
S'MIR:00100274'
p2421
sg6
S'ftp://ftp.embl-heidelberg.de/pub/databases/protein_extras/hssp/$id.hssp.bz2'
p2422
sa(dp2423
g4
S'MIR:00100458'
p2424
sg6
S'ftp://ftp.cmbi.ru.nl/pub/molbio/data/hssp/$id.hssp.bz2'
p2425
sasS'urn:miriam:mirbase'
p2426
(lp2427
(dp2428
g4
S'MIR:00100109'
p2429
sg6
S'http://microrna.sanger.ac.uk/cgi-bin/sequences/mirna_entry.pl?acc=$id'
p2430
sa(dp2431
g4
S'MIR:00100135'
p2432
sg6
S'http://www.mirbase.org/cgi-bin/mirna_entry.pl?acc=$id'
p2433
sasS'urn:miriam:pina'
p2434
(lp2435
(dp2436
g4
S'MIR:00100456'
p2437
sg6
S'http://cbg.garvan.unsw.edu.au/pina/interactome.oneP.do?ac=$id&showExtend=null'
p2438
sasS'urn:miriam:gmd.analyte'
p2439
(lp2440
(dp2441
g4
S'MIR:00100549'
p2442
sg6
S'http://gmd.mpimp-golm.mpg.de/Analytes/$id'
p2443
sasS'urn:miriam:cst'
p2444
(lp2445
(dp2446
g4
S'MIR:00100552'
p2447
sg6
S'http://www.cellsignal.com/reference/pathway/$id.html'
p2448
sasS'urn:miriam:ebimetagenomics'
p2449
(lp2450
(dp2451
g4
S'MIR:00100656'
p2452
sg6
S'http://www.ebi.ac.uk/metagenomics/sample/$id'
p2453
sasS'urn:miriam:myco.lepra'
p2454
(lp2455
(dp2456
g4
S'MIR:00100276'
p2457
sg6
S'http://mycobrowser.epfl.ch/leprosysearch.php?gene+name=$id'
p2458
sasS'urn:miriam:chemdb'
p2459
(lp2460
(dp2461
g4
S'MIR:00100360'
p2462
sg6
S'http://cdb.ics.uci.edu/cgibin/ChemicalDetailWeb.py?chemical_id=$id'
p2463
sasS'urn:miriam:nextdb'
p2464
(lp2465
(dp2466
g4
S'MIR:00100371'
p2467
sg6
S'http://nematode.lab.nig.ac.jp/db2/ShowCloneInfo.php?clone=$id'
p2468
sasS'urn:miriam:stap'
p2469
(lp2470
(dp2471
g4
S'MIR:00100519'
p2472
sg6
S'http://psb.kobic.re.kr/STAP/refinement/result.php?search=$id'
p2473
sasS'urn:miriam:genecards'
p2474
(lp2475
(dp2476
g4
S'MIR:00100407'
p2477
sg6
S'http://www.genecards.org/cgi-bin/carddisp.pl?gene=$id'
p2478
sa(dp2479
g4
S'MIR:00100408'
p2480
sg6
S'http://genecards.bii.a-star.edu.sg/cgi-bin/carddisp.pl?gene=$id'
p2481
sa(dp2482
g4
S'MIR:00100409'
p2483
sg6
S'http://p570e70p1.ophid.utoronto.ca/genecards/cgi-bin/carddisp.pl?gene=$id'
p2484
sa(dp2485
g4
S'MIR:00100410'
p2486
sg6
S'http://bioinformatics.mdanderson.org/genecards/cgi-bin/carddisp.pl?gene=$id'
p2487
sa(dp2488
g4
S'MIR:00100411'
p2489
sg6
S'http://www6.unito.it/cards/cgi-bin/carddisp.pl?gene=$id'
p2490
sa(dp2491
g4
S'MIR:00100412'
p2492
sg6
S'http://genecards.bioinformatics.nl/cgi-bin/carddisp.pl?gene=$id'
p2493
sa(dp2494
g4
S'MIR:00100413'
p2495
sg6
S'http://genecards_v3.hgc.jp/cgi-bin/carddisp.pl?gene=$id'
p2496
sasS'urn:miriam:csa'
p2497
(lp2498
(dp2499
g4
S'MIR:00100188'
p2500
sg6
S'http://www.ebi.ac.uk/thornton-srv/databases/CSA_NEW/SearchResults.php?PDBID=$id'
p2501
sasS'urn:miriam:biocatalogue.service'
p2502
(lp2503
(dp2504
g4
S'MIR:00100182'
p2505
sg6
S'https://www.biocatalogue.org/services/$id'
p2506
sasS'urn:miriam:cogs.function'
p2507
(lp2508
(dp2509
g4
S'MIR:00100572'
p2510
sg6
S'http://www.ncbi.nlm.nih.gov/COG/grace/wiew.cgi?fun=$id'
p2511
sasS'urn:miriam:imgt.ligm'
p2512
(lp2513
(dp2514
g4
S'MIR:00100368'
p2515
sg6
S"http://srs.ebi.ac.uk/srsbin/cgi-bin/wgetz?-id+1fmSL1g8Xvs+-e+[IMGTLIGM:'$id']"
p2516
sa(dp2517
g4
S'MIR:00100369'
p2518
sg6
S"http://genius.embnet.dkfz-heidelberg.de/menu/cgi-bin/srs7.1.3.1/wgetz?-id+4ktAl1fNMTA+-e+[IMGT:'$id']"
p2519
sa(dp2520
g4
S'MIR:00100428'
p2521
sg6
S'http://www.imgt.org/ligmdb/view?id=$id'
p2522
sasS'urn:miriam:homd.seq'
p2523
(lp2524
(dp2525
g4
S'MIR:00100216'
p2526
sg6
S'http://www.homd.org/modules.php?op=modload&name=GenomeList&file=index&link=detailinfo&seqid=$id'
p2527
sasS'urn:miriam:iceberg.family'
p2528
(lp2529
(dp2530
g4
S'MIR:00100605'
p2531
sg6
S'http://db-mml.sjtu.edu.cn/ICEberg/browse_result.php?type=fam&fam_id=$id'
p2532
sasS'urn:miriam:jws'
p2533
(lp2534
(dp2535
g4
S'MIR:00100168'
p2536
sg6
S'http://jjj.biochem.sun.ac.za/cgi-bin/processModelSelection.py?keytype=modelname&keyword=$id'
p2537
sa(dp2538
g4
S'MIR:00100169'
p2539
sg6
S'http://jjj.bio.vu.nl/cgi-bin/processModelSelection.py?keytype=modelname&keyword=$id'
p2540
sa(dp2541
g4
S'MIR:00100170'
p2542
sg6
S'http://jjj.mib.ac.uk/webMathematica/DataBaseSelection/processModelSelection.jsp?keytype=authors&keyword=$id'
p2543
sasS'urn:miriam:bdgp.est'
p2544
(lp2545
(dp2546
g4
S'MIR:00100366'
p2547
sg6
S'http://www.ncbi.nlm.nih.gov/nucest/$id'
p2548
sasS'urn:miriam:gramene.protein'
p2549
(lp2550
(dp2551
g4
S'MIR:00100227'
p2552
sg6
S'http://www.gramene.org/db/protein/protein_search?protein_id=$id'
p2553
sasS'urn:miriam:aftol.taxonomy'
p2554
(lp2555
(dp2556
g4
S'MIR:00100533'
p2557
sg6
S'http://wasabi.lutzonilab.net/pub/displayTaxonInfo?aftol_id=$id'
p2558
sasS'urn:miriam:ydpm'
p2559
(lp2560
(dp2561
g4
S'MIR:00100600'
p2562
sg6
S'http://www-deletion.stanford.edu/cgi-bin/YDPM/YDPM_search.cgi?thelist=$id'
p2563
sasS'urn:miriam:myco.smeg'
p2564
(lp2565
(dp2566
g4
S'MIR:00100278'
p2567
sg6
S'http://mycobrowser.epfl.ch/smegmasearch.php?gene+name=$id'
p2568
sasS'urn:miriam:hmdb'
p2569
(lp2570
(dp2571
g4
S'MIR:00100079'
p2572
sg6
S'http://www.hmdb.ca/metabolites/$id'
p2573
sasS'urn:miriam:cabri'
p2574
(lp2575
(dp2576
g4
S'MIR:00100334'
p2577
sg6
S'http://www.cabri.org/CABRI/srs-bin/wgetz?-e+-page+EntryPage+[$id]'
p2578
sa(dp2579
g4
S'MIR:00100335'
p2580
sg6
S'http://www.be.cabri.org/CABRI/srs-bin/wgetz?-e+-page+EntryPage+[$id]'
p2581
sa(dp2582
g4
S'MIR:00100336'
p2583
sg6
S'http://www.fr.cabri.org/CABRI/srs-bin/wgetz?-e+-page+EntryPage+[$id]'
p2584
sasS'urn:miriam:fma'
p2585
g2178
sS'urn:miriam:molbase'
p2586
(lp2587
(dp2588
g4
S'MIR:00100593'
p2589
sg6
S'http://www.molbase.com/en/index.php?app=search&search_keyword=$id'
p2590
sasS'urn:miriam:pathwaycommons'
p2591
(lp2592
(dp2593
g4
S'MIR:00100103'
p2594
sg6
S'http://www.pathwaycommons.org/pc/record2.do?id=$id'
p2595
sasS'urn:miriam:broad'
p2596
(lp2597
(dp2598
g4
S'MIR:00100569'
p2599
sg6
S'http://www.broadinstitute.org/annotation/genome/magnaporthe_grisea/GeneDetails.html?sp=$id'
p2600
sasS'urn:miriam:dragondb.dna'
p2601
(lp2602
(dp2603
g4
S'MIR:00100379'
p2604
sg6
S'http://antirrhinum.net/cgi-bin/ace/generic/tree/DragonDB?name=$id;class=DNA'
p2605
sasS'urn:miriam:abs'
p2606
(lp2607
(dp2608
g4
S'MIR:00100358'
p2609
sg6
S'http://genome.crg.es/datasets/abs2005/entries/$id.html'
p2610
sasS'urn:miriam:pride.project'
p2611
(lp2612
(dp2613
g4
S'MIR:00100662'
p2614
sg6
S'http://www.ebi.ac.uk/pride/archive/projects/$id'
p2615
sasS'urn:miriam:dbest'
p2616
(lp2617
(dp2618
g4
S'MIR:00100204'
p2619
sg6
S'http://www.ncbi.nlm.nih.gov/nucest/$id'
p2620
sa(dp2621
g4
S'MIR:00100331'
p2622
sg6
S'http://www.ebi.ac.uk/ena/data/view/$id'
p2623
sa(dp2624
g4
S'MIR:00100651'
p2625
sg6
S'http://getentry.ddbj.nig.ac.jp/getentry/na/$id'
p2626
sasS'urn:miriam:glycomedb'
p2627
(lp2628
(dp2629
g4
S'MIR:00100147'
p2630
sg6
S'http://www.glycome-db.org/database/showStructure.action?glycomeId=$id'
p2631
sasS'urn:miriam:po'
p2632
g1706
sS'urn:miriam:nbn'
p2633
(lp2634
(dp2635
g4
S'MIR:00100488'
p2636
sg6
S'http://nbn-resolving.org/resolver?identifier=$id&verb=full'
p2637
sasS'urn:miriam:pw'
p2638
g1670
sS'urn:miriam:pr'
p2639
g1661
sS'urn:miriam:gxa.expt'
p2640
(lp2641
(dp2642
g4
S'MIR:00100483'
p2643
sg6
S'http://www.ebi.ac.uk/gxa/experiments/$id'
p2644
sasS'urn:miriam:paxdb.organism'
p2645
(lp2646
(dp2647
g4
S'MIR:00100624'
p2648
sg6
S'http://pax-db.org/#!species/$id'
p2649
sasS'urn:miriam:pmc'
p2650
(lp2651
(dp2652
g4
S'MIR:00100191'
p2653
sg6
S'http://www.ncbi.nlm.nih.gov/pmc/articles/$id/?tool=pubmed'
p2654
sa(dp2655
g4
S'MIR:00100192'
p2656
sg6
S'http://ukpmc.ac.uk/articles/$id'
p2657
sa(dp2658
g4
S'MIR:00100498'
p2659
sg6
S'http://europepmc.org/articles/$id'
p2660
sasS'urn:miriam:ensembl.fungi'
p2661
(lp2662
(dp2663
g4
S'MIR:00100265'
p2664
sg6
S'http://fungi.ensembl.org/id/$id'
p2665
sasS'urn:miriam:funcbase.human'
p2666
(lp2667
(dp2668
g4
S'MIR:00100597'
p2669
sg6
S'http://func.mshri.on.ca/human/genes/list_functional_scores/$id'
p2670
sasS'urn:miriam:pmp'
p2671
(lp2672
(dp2673
g4
S'MIR:00100286'
p2674
sg6
S'http://www.proteinmodelportal.org/query/uniprot/$id'
p2675
sasS'urn:miriam:clustr'
p2676
(lp2677
(dp2678
g4
S'MIR:00100030'
p2679
sg6
S'http://www.ebi.ac.uk/clustr-srv/CCluster?interpro=yes&cluster_varid=$id'
p2680
sasS'urn:miriam:pubchem.bioassay'
p2681
(lp2682
(dp2683
g4
S'MIR:00100102'
p2684
sg6
S'http://pubchem.ncbi.nlm.nih.gov/assay/assay.cgi?aid=$id'
p2685
sasS'urn:miriam:miriam.collection'
p2686
g1435
sS'urn:miriam:pdb'
p2687
(lp2688
(dp2689
g4
S'MIR:00100029'
p2690
sg6
S'http://www.rcsb.org/pdb/explore/explore.do?structureId=$id'
p2691
sa(dp2692
g4
S'MIR:00100037'
p2693
sg6
S'http://www.pdbe.org/$id'
p2694
sa(dp2695
g4
S'MIR:00100096'
p2696
sg6
S'http://proteopedia.org/wiki/index.php/$id'
p2697
sa(dp2698
g4
S'MIR:00100165'
p2699
sg6
S'http://service.pdbj.org/mine/summary/$id'
p2700
sa(dp2701
g4
S'MIR:00100166'
p2702
sg6
S'http://www.ebi.ac.uk/pdbsum/$id'
p2703
sasS'urn:miriam:sabiork.ec'
p2704
(lp2705
(dp2706
g4
S'MIR:00100163'
p2707
sg6
S'http://sabiork.h-its.org/newSearch?q=ecnumber:$id'
p2708
sasS'urn:miriam:umbbd.rule'
p2709
(lp2710
(dp2711
g4
S'MIR:00100421'
p2712
sg6
S'http://www.umbbd.ethz.ch/servlets/rule.jsp?rule=$id'
p2713
sa(dp2714
g4
S'MIR:00100422'
p2715
sg6
S'http://umbbd.msi.umn.edu/servlets/rule.jsp?rule=$id'
p2716
sasS'urn:miriam:chebi'
p2717
g1917
sS'urn:miriam:gramene.growthstage'
p2718
(lp2719
(dp2720
g4
S'MIR:00100649'
p2721
sg6
S'http://www.gramene.org/db/ontology/search?id=$id'
p2722
sasS'urn:miriam:umbbd.reaction'
p2723
(lp2724
(dp2725
g4
S'MIR:00100415'
p2726
sg6
S'http://umbbd.msi.umn.edu/servlets/pageservlet?ptype=r&reacID=$id'
p2727
sa(dp2728
g4
S'MIR:00100416'
p2729
sg6
S'http://umbbd.ethz.ch/servlets/pageservlet?ptype=r&reacID=$id'
p2730
sasS'urn:miriam:pdb-ccd'
p2731
(lp2732
(dp2733
g4
S'MIR:00100146'
p2734
sg6
S'http://www.ebi.ac.uk/pdbe-srv/pdbechem/chemicalCompound/show/$id'
p2735
sasS'urn:miriam:unimod'
p2736
(lp2737
(dp2738
g4
S'MIR:00100581'
p2739
sg6
S'http://www.unimod.org/modifications_view.php?editid1=$id'
p2740
sasS'urn:miriam:bindingDB'
p2741
(lp2742
(dp2743
g4
S'MIR:00100340'
p2744
sg6
S'http://www.bindingdb.org/bind/chemsearch/marvin/MolStructure.jsp?monomerid=$id'
p2745
sasS'urn:miriam:kegg.compound'
p2746
(lp2747
(dp2748
g4
S'MIR:00100021'
p2749
sg6
S'http://www.kegg.jp/entry/$id'
p2750
sasS'urn:miriam:aspgd.protein'
p2751
(lp2752
(dp2753
g4
S'MIR:00100535'
p2754
sg6
S'http://www.aspergillusgenome.org/cgi-bin/protein/proteinPage.pl?dbid=$id'
p2755
sasS'urn:miriam:swiss-model'
p2756
(lp2757
(dp2758
g4
S'MIR:00100290'
p2759
sg6
S'http://swissmodel.expasy.org/repository/smr.php?sptr_ac=$id'
p2760
sasS'urn:miriam:noncodev3'
p2761
g2349
sS'urn:miriam:ncim'
p2762
(lp2763
(dp2764
g4
S'MIR:00100450'
p2765
sg6
S'http://ncim.nci.nih.gov/ncimbrowser/ConceptReport.jsp?dictionary=NCI%20MetaThesaurus&code=$id'
p2766
sasS'urn:miriam:hprd'
p2767
(lp2768
(dp2769
g4
S'MIR:00100479'
p2770
sg6
S'http://www.hprd.org/protein/$id'
p2771
sasS'urn:miriam:uberon'
p2772
(lp2773
(dp2774
g4
S'MIR:00100579'
p2775
sg6
S'http://purl.bioontology.org/ontology/UBERON/$id'
p2776
sa(dp2777
g4
S'MIR:00100580'
p2778
sg6
S'http://www.ebi.ac.uk/ontology-lookup/?termId=$id'
p2779
sasS'urn:miriam:ncit'
p2780
(lp2781
(dp2782
g4
S'MIR:00100181'
p2783
sg6
S'http://ncit.nci.nih.gov/ncitbrowser/ConceptReport.jsp?dictionary=NCI%20Thesaurus&code=$id'
p2784
sasS'urn:miriam:odor'
p2785
(lp2786
(dp2787
g4
S'MIR:00100641'
p2788
sg6
S'http://senselab.med.yale.edu/OdorDB/eavData.aspx?o=$id'
p2789
sasS'urn:miriam:arrayexpress.platform'
p2790
(lp2791
(dp2792
g4
S'MIR:00100376'
p2793
sg6
S'http://www.ebi.ac.uk/arrayexpress/arrays/$id'
p2794
sasS'urn:miriam:edam'
p2795
(lp2796
(dp2797
g4
S'MIR:00100246'
p2798
sg6
S'http://www.ebi.ac.uk/ontology-lookup/?termId=EDAM_data:$id'
p2799
sa(dp2800
g4
S'MIR:00100536'
p2801
sg6
S'http://purl.bioontology.org/ontology/EDAM/$id'
p2802
sasS'urn:miriam:insdc'
p2803
(lp2804
(dp2805
g4
S'MIR:00100048'
p2806
sg6
S'http://srs.ebi.ac.uk/srsbin/cgi-bin/wgetz?-page+EntryPage+-e+[EMBL:$id]+-view+EmblEntry'
p2807
sa(dp2808
g4
S'MIR:00100049'
p2809
sg6
S'http://www.ncbi.nlm.nih.gov/entrez/viewer.fcgi?val=$id'
p2810
sa(dp2811
g4
S'MIR:00100066'
p2812
sg6
S'http://getentry.ddbj.nig.ac.jp/getentry?database=ddbj&accession_number=$id'
p2813
sa(dp2814
g4
S'MIR:00100487'
p2815
sg6
S'http://www.ebi.ac.uk/ena/data/view/$id'
p2816
sa(dp2817
g4
S'MIR:00100490'
p2818
sg6
S'http://www.ncbi.nlm.nih.gov/nuccore/$id'
p2819
sasS'urn:miriam:smpdb'
p2820
(lp2821
(dp2822
g4
S'MIR:00100137'
p2823
sg6
S'http://pathman.smpdb.ca/pathways/$id/pathway'
p2824
sasS'urn:miriam:atc'
p2825
(lp2826
(dp2827
g4
S'MIR:00100119'
p2828
sg6
S'http://www.whocc.no/atc_ddd_index/?code=$id'
p2829
sasS'urn:miriam:pharmgkb.pathways'
p2830
(lp2831
(dp2832
g4
S'MIR:00100120'
p2833
sg6
S'http://www.pharmgkb.org/pathway/$id'
p2834
sasS'urn:miriam:beetlebase'
p2835
(lp2836
(dp2837
g4
S'MIR:00100202'
p2838
sg6
S'http://beetlebase.org/cgi-bin/gbrowse/BeetleBase3.gff3/?name=$id'
p2839
sasS'urn:miriam:autdb'
p2840
(lp2841
(dp2842
g4
S'MIR:00100538'
p2843
sg6
S'http://autism.mindspec.org/GeneDetail/$id'
p2844
sasS'urn:miriam:vectorbase'
p2845
(lp2846
(dp2847
g4
S'MIR:00100291'
p2848
sg6
S'https://www.vectorbase.org/search/site/$id?&site="Genome"'
p2849
sasS'urn:miriam:funcbase.mouse'
p2850
(lp2851
(dp2852
g4
S'MIR:00100598'
p2853
sg6
S'http://func.mshri.on.ca/mouse/genes/list_functional_scores/$id'
p2854
sasS'urn:miriam:topfind'
p2855
(lp2856
(dp2857
g4
S'MIR:00100326'
p2858
sg6
S'http://clipserve.clip.ubc.ca/topfind/proteins/$id'
p2859
sasS'urn:miriam:chemidplus'
p2860
(lp2861
(dp2862
g4
S'MIR:00100127'
p2863
sg6
S'http://chem.sis.nlm.nih.gov/chemidplus/direct.jsp?regno=$id'
p2864
sasS'urn:miriam:biocarta.pathway'
p2865
(lp2866
(dp2867
g4
S'MIR:00100544'
p2868
sg6
S'http://www.biocarta.com/pathfiles/$id.asp'
p2869
sasS'urn:miriam:biogrid'
p2870
(lp2871
(dp2872
g4
S'MIR:00100086'
p2873
sg6
S'http://thebiogrid.org/$id'
p2874
sasS'urn:miriam:cmr.gene'
p2875
(lp2876
(dp2877
g4
S'MIR:00100397'
p2878
sg6
S'http://cmr.jcvi.org/cgi-bin/CMR/shared/GenePage.cgi?locus=$id'
p2879
sasS'urn:miriam:protclustdb'
p2880
(lp2881
(dp2882
g4
S'MIR:00100285'
p2883
sg6
S'http://www.ncbi.nlm.nih.gov/sites/entrez?Db=proteinclusters&Cmd=DetailsSearch&Term=$id'
p2884
sasS'urn:miriam:phosphopoint.kinase'
p2885
(lp2886
(dp2887
g4
S'MIR:00100499'
p2888
sg6
S'http://kinase.bioinformatics.tw/showall.jsp?type=Kinase&info=Gene&name=$id&drawing=0&sorting=0&kinome=1'
p2889
sasS'urn:miriam:hcvdb'
p2890
(lp2891
(dp2892
g4
S'MIR:00100266'
p2893
sg6
S'http://euhcvdb.ibcp.fr/euHCVdb/do/displayHCVEntry?primaryAC=$id'
p2894
sasS'urn:miriam:wormbase.rnai'
p2895
(lp2896
(dp2897
g4
S'MIR:00100601'
p2898
sg6
S'http://www.wormbase.org/species/c_elegans/rnai/$id'
p2899
sasS'urn:miriam:epd'
p2900
(lp2901
(dp2902
g4
S'MIR:00100528'
p2903
sg6
S'http://epd.vital-it.ch/cgi-bin/query_result.pl?out_format=NICE&Entry_0=$id'
p2904
sa(dp2905
g4
S'MIR:00100529'
p2906
sg6
S"http://srs.ebi.ac.uk/srsbin/cgi-bin/wgetz?-id+1fmSL1hlE31+-e+[EPD:'$id']"
p2907
sasS'urn:miriam:genetree'
p2908
(lp2909
(dp2910
g4
S'MIR:00100273'
p2911
sg6
S'http://www.ensembl.org/Multi/GeneTree/Image?db=core;gt=$id'
p2912
sasS'urn:miriam:wikigenes'
p2913
(lp2914
(dp2915
g4
S'MIR:00100567'
p2916
sg6
S'http://www.wikigenes.org/e/gene/e/$id.html'
p2917
sasS'urn:miriam:brenda'
p2918
(lp2919
(dp2920
g4
S'MIR:00100101'
p2921
sg6
S'http://www.brenda-enzymes.org/php/result_flat.php4?ecno=$id'
p2922
sasS'urn:miriam:myco.tuber'
p2923
(lp2924
(dp2925
g4
S'MIR:00100275'
p2926
sg6
S'http://tuberculist.epfl.ch/quicksearch.php?gene+name=$id'
p2927
sasS'urn:miriam:mirex'
p2928
(lp2929
(dp2930
g4
S'MIR:00100423'
p2931
sg6
S'http://comgen.pl/mirex/?page=results/record&name=$id&web_temp=1683440&exref=pp2a&limit=yes'
p2932
sasS'urn:miriam:ensembl.metazoa'
p2933
(lp2934
(dp2935
g4
S'MIR:00100263'
p2936
sg6
S'http://metazoa.ensembl.org/id/$id'
p2937
sasS'urn:lsid:uniprot.org'
p2938
g409
sS'urn:miriam:teddy'
p2939
g348
sS'urn:miriam:dbg2introns'
p2940
(lp2941
(dp2942
g4
S'MIR:00100401'
p2943
sg6
S'http://webapps2.ucalgary.ca/~groupii/cgi-bin/intron.cgi?name=$id'
p2944
sasS'urn:miriam:kegg.drug'
p2945
(lp2946
(dp2947
g4
S'MIR:00100035'
p2948
sg6
S'http://www.kegg.jp/entry/$id'
p2949
sasS'urn:miriam:hovergen'
p2950
(lp2951
(dp2952
g4
S'MIR:00100104'
p2953
sg6
S'http://pbil.univ-lyon1.fr/cgi-bin/view-tree.pl?query=$id&db=HOVERGEN'
p2954
sasS'urn:miriam:polbase'
p2955
(lp2956
(dp2957
g4
S'MIR:00100452'
p2958
sg6
S'http://polbase.neb.com/polymerases/$id#sequences'
p2959
sasS'urn:miriam:vipr'
p2960
(lp2961
(dp2962
g4
S'MIR:00100527'
p2963
sg6
S'http://www.viprbrc.org/brc/viprStrainDetails.do?strainName=$id&decorator=arena'
p2964
sasS'urn:miriam:dictybase.est'
p2965
(lp2966
(dp2967
g4
S'MIR:00100424'
p2968
sg6
S'http://dictybase.org/db/cgi-bin/feature_page.pl?primary_id=$id'
p2969
sasS'urn:miriam:oryzabase.mutant'
p2970
(lp2971
(dp2972
g4
S'MIR:00100619'
p2973
sg6
S'http://www.shigen.nig.ac.jp/rice/oryzabaseV4/strain/inducedMutationLine/detail/$id'
p2974
sasS'urn:miriam:nasc'
p2975
(lp2976
(dp2977
g4
S'MIR:00100386'
p2978
sg6
S'http://arabidopsis.info/StockInfo?NASC_id=$id'
p2979
sasS'urn:miriam:ricegap'
p2980
(lp2981
(dp2982
g4
S'MIR:00100455'
p2983
sg6
S'http://rice.plantbiology.msu.edu/cgi-bin/ORF_infopage.cgi?&orf=$id'
p2984
sasS'urn:miriam:mpid'
p2985
(lp2986
(dp2987
g4
S'MIR:00100157'
p2988
sg6
S'http://www.jcvi.org/mpidb/experiment.php?interaction_id=$id'
p2989
sa(dp2990
g4
S'MIR:00100655'
p2991
sg6
S'http://www.ebi.ac.uk/intact/query/interaction_id:MPIDB-INT-$id'
p2992
sasS'urn:miriam:datf'
p2993
(lp2994
(dp2995
g4
S'MIR:00100591'
p2996
sg6
S'http://datf.cbi.pku.edu.cn/entry-display.php?id=$id'
p2997
sasS'urn:miriam:gramene.taxonomy'
p2998
(lp2999
(dp3000
g4
S'MIR:00100229'
p3001
sg6
S'http://www.gramene.org/db/ontology/search?id=$id'
p3002
sasS'urn:miriam:genewiki'
p3003
(lp3004
(dp3005
g4
S'MIR:00100623'
p3006
sg6
S'http://plugins.biogps.org/cgi-bin/wp.cgi?id=$id'
p3007
sasS'urn:miriam:aceview.worm'
p3008
(lp3009
(dp3010
g4
S'MIR:00100363'
p3011
sg6
S'http://www.ncbi.nlm.nih.gov/IEB/Research/Acembly/av.cgi?db=worm&c=Gene&l=$id'
p3012
sasS'urn:miriam:mmmp:biomaps'
p3013
(lp3014
(dp3015
g4
S'MIR:00100105'
p3016
sg6
S'http://www.mmmp.org/MMMP/public/biomap/viewBiomap.mmmp?id=$id'
p3017
sasS'urn:miriam:unipathway'
p3018
(lp3019
(dp3020
g4
S'MIR:00100114'
p3021
sg6
S'http://www.grenoble.prabi.fr/obiwarehouse/unipathway/upa?upid=$id'
p3022
sasS'urn:miriam:vbase2'
p3023
(lp3024
(dp3025
g4
S'MIR:00100403'
p3026
sg6
S'http://www.vbase2.org/vgene.php?id=$id'
p3027
sasS'urn:miriam:myco.marinum'
p3028
(lp3029
(dp3030
g4
S'MIR:00100277'
p3031
sg6
S'http://mycobrowser.epfl.ch/marinosearch.php?gene+name=$id'
p3032
sasS'urn:miriam:imex'
p3033
(lp3034
(dp3035
g4
S'MIR:00100155'
p3036
sg6
S'http://www.ebi.ac.uk/intact/imex/main.xhtml?query=$id'
p3037
sa(dp3038
g4
S'MIR:00100663'
p3039
sg6
S'https://imexcentral.org/icentral/imex/rec/$id'
p3040
sasS'urn:miriam:mycobank'
p3041
(lp3042
(dp3043
g4
S'MIR:00100224'
p3044
sg6
S'http://www.mycobank.org/Biolomics.aspx?Table=Mycobank&MycoBankNr_=$id'
p3045
sasS'urn:miriam:ligandbox'
p3046
(lp3047
(dp3048
g4
S'MIR:00100612'
p3049
sg6
S'http://ligandbox.protein.osaka-u.ac.jp/ligandbox/cgi-bin/liginf.cgi?id=$id'
p3050
sasS'urn:miriam:kegg.pathway'
p3051
(lp3052
(dp3053
g4
S'MIR:00100020'
p3054
sg6
S'http://www.kegg.jp/entry/$id'
p3055
sasS'urn:miriam:metlin'
p3056
(lp3057
(dp3058
g4
S'MIR:00100406'
p3059
sg6
S'http://metlin.scripps.edu/metabo_info.php?molid=$id'
p3060
sasS'urn:miriam:coriell'
p3061
(lp3062
(dp3063
g4
S'MIR:00100570'
p3064
sg6
S'http://ccr.coriell.org/Sections/Search/Sample_Detail.aspx?Ref=$id'
p3065
sasS'urn:miriam:icd'
p3066
(lp3067
(dp3068
g4
S'MIR:00100016'
p3069
sg6
S'http://apps.who.int/classifications/icd10/browse/2010/en#/$id'
p3070
sasS'urn:miriam:img.taxon'
p3071
(lp3072
(dp3073
g4
S'MIR:00100221'
p3074
sg6
S'http://img.jgi.doe.gov/cgi-bin/w/main.cgi?section=TaxonDetail&taxon_oid=$id'
p3075
sasS'urn:miriam:wikipathways'
p3076
(lp3077
(dp3078
g4
S'MIR:00100106'
p3079
sg6
S'http://www.wikipathways.org/instance/$id'
p3080
sasS'urn:miriam:modeldb'
p3081
(lp3082
(dp3083
g4
S'MIR:00100171'
p3084
sg6
S'http://senselab.med.yale.edu/ModelDB/ShowModel.asp?model=$id'
p3085
sasS'urn:miriam:dommino'
p3086
(lp3087
(dp3088
g4
S'MIR:00100474'
p3089
sg6
S'http://orion.rnet.missouri.edu/~nz953/DOMMINO/index.php/result/show_network/$id'
p3090
sasS'urn:miriam:cdpd'
p3091
(lp3092
(dp3093
g4
S'MIR:00100351'
p3094
sg6
S'http://webprod3.hc-sc.gc.ca/dpd-bdpp/info.do?lang=eng&code=$id'
p3095
sasS'urn:miriam:proglyc'
p3096
(lp3097
(dp3098
g4
S'MIR:00100451'
p3099
sg6
S'http://www.proglycprot.org/detail.aspx?ProId=$id'
p3100
sasS'urn:miriam:bionumbers'
p3101
(lp3102
(dp3103
g4
S'MIR:00100132'
p3104
sg6
S'http://www.bionumbers.hms.harvard.edu/bionumber.aspx?s=y&id=$id&ver=1'
p3105
sasS'urn:miriam:vario'
p3106
(lp3107
(dp3108
g4
S'MIR:00100526'
p3109
sg6
S'http://www.variationontology.org/cgi-bin/amivario/term-details.cgi?term=$id'
p3110
sa(dp3111
g4
S'MIR:00100566'
p3112
sg6
S'http://purl.bioontology.org/ontology/VARIO/$id'
p3113
sa(dp3114
g4
S'MIR:00100677'
p3115
sg6
S'http://www.ebi.ac.uk/ontology-lookup/?termId=$id'
p3116
sas.