(dp1
S'files'
p2
(dp3
S'multiscalesite_settings'
p4
(dp5
S'index'
p6
(dp7
S'html_filename'
p8
S'multiscalesite_settings.html'
p9
sS'name'
p10
S'multiscalesite/settings'
p11
sS'nums'
p12
ccopy_reg
_reconstructor
p13
(ccoverage.results
Numbers
p14
c__builtin__
object
p15
NtRp16
(dp17
S'n_files'
p18
I1
sS'n_branches'
p19
I0
sS'n_statements'
p20
I21
sS'n_excluded'
p21
I0
sS'n_partial_branches'
p22
I0
sS'n_missing'
p23
I0
sS'n_missing_branches'
p24
I0
sbssS'hash'
p25
S'\xc4"\xa0eZmHk\x82\xf6g\x87\x93\xd8\\\xe6'
p26
ssS'simapp_analysis_plots'
p27
(dp28
g6
(dp29
g8
S'simapp_analysis_plots.html'
p30
sg10
S'simapp/analysis/plots'
p31
sg12
g13
(g14
g15
NtRp32
(dp33
g18
I1
sg19
I0
sg20
I49
sg21
I0
sg22
I0
sg23
I49
sg24
I0
sbssg25
S'vi4e\xfdY\xe8\x8b\xbc\x86\xce\xb4!B\xeb\xc9'
p34
ssS'util_miriam___init__'
p35
(dp36
g6
(dp37
g8
S'util_miriam___init__.html'
p38
sg10
S'util/miriam/__init__'
p39
sg12
g13
(g14
g15
NtRp40
(dp41
g18
I1
sg19
I0
sg20
I0
sg21
I0
sg22
I0
sg23
I0
sg24
I0
sbssg25
S'\xca\xf5\x9f\x7f\x88\xdfa\x831|T\x1d\xbc}\xa5v'
p42
ssS'multiscalesite_urls'
p43
(dp44
g6
(dp45
g8
S'multiscalesite_urls.html'
p46
sg10
S'multiscalesite/urls'
p47
sg12
g13
(g14
g15
NtRp48
(dp49
g18
I1
sg19
I0
sg20
I7
sg21
I0
sg22
I0
sg23
I0
sg24
I0
sbssg25
S'\x83g\xd2\xb7tO\xcc!\xda%*\xdc+\xd5\xa2E'
p50
ssS'manage'
p51
(dp52
g6
(dp53
g8
S'manage.html'
p54
sg10
g51
sg12
g13
(g14
g15
NtRp55
(dp56
g18
I1
sg19
I0
sg20
I6
sg21
I0
sg22
I0
sg23
I0
sg24
I0
sbssg25
S'\x9a:\xbd\xf5\x1a]{#\r\xe9\x91P3\xd8\xed>'
p57
ssS'simapp_analysis_ParameterFiles'
p58
(dp59
g6
(dp60
g8
S'simapp_analysis_ParameterFiles.html'
p61
sg10
S'simapp/analysis/ParameterFiles'
p62
sg12
g13
(g14
g15
NtRp63
(dp64
g18
I1
sg19
I0
sg20
I50
sg21
I0
sg22
I0
sg23
I31
sg24
I0
sbssg25
S'\xb2\xd7-\\*\x98\x8a?\x90\xee\xb4-/\xc5\xa0\x07'
p65
ssS'simapp_templatetags___init__'
p66
(dp67
g6
(dp68
g8
S'simapp_templatetags___init__.html'
p69
sg10
S'simapp/templatetags/__init__'
p70
sg12
g13
(g14
g15
NtRp71
(dp72
g18
I1
sg19
I0
sg20
I0
sg21
I0
sg22
I0
sg23
I0
sg24
I0
sbssg25
S'\xca\xf5\x9f\x7f\x88\xdfa\x831|T\x1d\xbc}\xa5v'
p73
ssS'project_settings'
p74
(dp75
g6
(dp76
g8
S'project_settings.html'
p77
sg10
g74
sg12
g13
(g14
g15
NtRp78
(dp79
g18
I1
sg19
I0
sg20
I7
sg21
I0
sg22
I0
sg23
I0
sg24
I0
sbssg25
S'\x9e\x18\xfb:*\xf9\xecY@@B\x07\x04=",'
p80
ssS'simapp_sbml_report'
p81
(dp82
g6
(dp83
g8
S'simapp_sbml_report.html'
p84
sg10
S'simapp/sbml/report'
p85
sg12
g13
(g14
g15
NtRp86
(dp87
g18
I1
sg19
I0
sg20
I29
sg21
I0
sg22
I0
sg23
I8
sg24
I0
sbssg25
S"5\xad1\xe1\xce'[\xcd2\x9d!v\xe1~\x15S"
p88
ssS'simapp_models'
p89
(dp90
g6
(dp91
g8
S'simapp_models.html'
p92
sg10
S'simapp/models'
p93
sg12
g13
(g14
g15
NtRp94
(dp95
g18
I1
sg19
I0
sg20
I350
sg21
I0
sg22
I0
sg23
I40
sg24
I0
sbssg25
S'\x00w}\xf7\tU\xe2f\xa3k?\xffsa\xd7$'
p96
ssS'examples___init__'
p97
(dp98
g6
(dp99
g8
S'examples___init__.html'
p100
sg10
S'examples/__init__'
p101
sg12
g13
(g14
g15
NtRp102
(dp103
g18
I1
sg19
I0
sg20
I0
sg21
I0
sg22
I0
sg23
I0
sg24
I0
sbssg25
S'\xf6\xae\xa3\xed\x87\xb1\xfcy\r\x8a\xa6\x1d\xe4%\x08\x04'
p104
ssS'util_test_util_classes'
p105
(dp106
g6
(dp107
g8
S'util_test_util_classes.html'
p108
sg10
S'util/test_util_classes'
p109
sg12
g13
(g14
g15
NtRp110
(dp111
g18
I1
sg19
I0
sg20
I38
sg21
I0
sg22
I0
sg23
I1
sg24
I0
sbssg25
S'#\x19\x11\xd4v9\xc5\xf2\xe8\r\x12\xc1\xf1\xcf\xe5\xb0'
p112
ssS'simapp_db___init__'
p113
(dp114
g6
(dp115
g8
S'simapp_db___init__.html'
p116
sg10
S'simapp/db/__init__'
p117
sg12
g13
(g14
g15
NtRp118
(dp119
g18
I1
sg19
I0
sg20
I0
sg21
I0
sg22
I0
sg23
I0
sg24
I0
sbssg25
S'\xca\xf5\x9f\x7f\x88\xdfa\x831|T\x1d\xbc}\xa5v'
p120
ssS'util_antimony___init__'
p121
(dp122
g6
(dp123
g8
S'util_antimony___init__.html'
p124
sg10
S'util/antimony/__init__'
p125
sg12
g13
(g14
g15
NtRp126
(dp127
g18
I1
sg19
I0
sg20
I0
sg21
I0
sg22
I0
sg23
I0
sg24
I0
sbssg25
S'\x18\x12K-r{\xb6N\x12\x99w\xf5\xa1_\x1f*'
p128
ssS'util_biomodels_biomodels'
p129
(dp130
g6
(dp131
g8
S'util_biomodels_biomodels.html'
p132
sg10
S'util/biomodels/biomodels'
p133
sg12
g13
(g14
g15
NtRp134
(dp135
g18
I1
sg19
I0
sg20
I0
sg21
I0
sg22
I0
sg23
I0
sg24
I0
sbssg25
S'\xcb\xd6\x0c\xc9\x89Q\xb6\xd5\x9fO\x8f\x19]\x88N\xf0'
p136
ssS'simapp_migrations___init__'
p137
(dp138
g6
(dp139
g8
S'simapp_migrations___init__.html'
p140
sg10
S'simapp/migrations/__init__'
p141
sg12
g13
(g14
g15
NtRp142
(dp143
g18
I1
sg19
I0
sg20
I0
sg21
I0
sg22
I0
sg23
I0
sg24
I0
sbssg25
S'\xca\xf5\x9f\x7f\x88\xdfa\x831|T\x1d\xbc}\xa5v'
p144
ssS'simapp_analysis_prepare_task'
p145
(dp146
g6
(dp147
g8
S'simapp_analysis_prepare_task.html'
p148
sg10
S'simapp/analysis/prepare_task'
p149
sg12
g13
(g14
g15
NtRp150
(dp151
g18
I1
sg19
I0
sg20
I68
sg21
I0
sg22
I0
sg23
I68
sg24
I0
sbssg25
S'9\xf0M\xbe~\x9b)\xa6\xf9\x0e\xf7\x91\xdbcs\x8b'
p152
ssS'util_sabiork___init__'
p153
(dp154
g6
(dp155
g8
S'util_sabiork___init__.html'
p156
sg10
S'util/sabiork/__init__'
p157
sg12
g13
(g14
g15
NtRp158
(dp159
g18
I1
sg19
I0
sg20
I0
sg21
I0
sg22
I0
sg23
I0
sg24
I0
sbssg25
S'\x18\x12K-r{\xb6N\x12\x99w\xf5\xa1_\x1f*'
p160
ssS'simapp_templatetags_SBML_filters'
p161
(dp162
g6
(dp163
g8
S'simapp_templatetags_SBML_filters.html'
p164
sg10
S'simapp/templatetags/SBML_filters'
p165
sg12
g13
(g14
g15
NtRp166
(dp167
g18
I1
sg19
I0
sg20
I108
sg21
I0
sg22
I0
sg23
I53
sg24
I0
sbssg25
S'\xb1ve\x18\x1a\xc4q4u9lf\xbd\xaf\x13)'
p168
ssS'simapp_views'
p169
(dp170
g6
(dp171
g8
S'simapp_views.html'
p172
sg10
S'simapp/views'
p173
sg12
g13
(g14
g15
NtRp174
(dp175
g18
I1
sg19
I0
sg20
I68
sg21
I0
sg22
I0
sg23
I8
sg24
I0
sbssg25
S'\x844\xf5Pl\x87\x1fDB\x85\x89\xc2a\x0b6^'
p176
ssS'examples_demo___init__'
p177
(dp178
g6
(dp179
g8
S'examples_demo___init__.html'
p180
sg10
S'examples/demo/__init__'
p181
sg12
g13
(g14
g15
NtRp182
(dp183
g18
I1
sg19
I0
sg20
I0
sg21
I0
sg22
I0
sg23
I0
sg24
I0
sbssg25
S'\x18\x12K-r{\xb6N\x12\x99w\xf5\xa1_\x1f*'
p184
ssS'simapp_migrations_0003_auto_20150519_1429'
p185
(dp186
g6
(dp187
g8
S'simapp_migrations_0003_auto_20150519_1429.html'
p188
sg10
S'simapp/migrations/0003_auto_20150519_1429'
p189
sg12
g13
(g14
g15
NtRp190
(dp191
g18
I1
sg19
I0
sg20
I5
sg21
I0
sg22
I0
sg23
I0
sg24
I0
sbssg25
S'H$\xe1e\x8c\x93Rc@B\x8d\xd7!AO\x8c'
p192
ssS'simapp_sbml_test_report'
p193
(dp194
g6
(dp195
g8
S'simapp_sbml_test_report.html'
p196
sg10
S'simapp/sbml/test_report'
p197
sg12
g13
(g14
g15
NtRp198
(dp199
g18
I1
sg19
I0
sg20
I15
sg21
I0
sg22
I0
sg23
I0
sg24
I0
sbssg25
S'\xf2\xaeU\xf7\xf7\xb5\x9a \xb2\xd85\xcb\xbc\x12E\xc2'
p200
ssS'simapp_db_test_api'
p201
(dp202
g6
(dp203
g8
S'simapp_db_test_api.html'
p204
sg10
S'simapp/db/test_api'
p205
sg12
g13
(g14
g15
NtRp206
(dp207
g18
I1
sg19
I0
sg20
I63
sg21
I0
sg22
I0
sg23
I0
sg24
I0
sbssg25
S'\xc1\xbd\x04h\xb6H\x11\x1c\xd2\xf3\xbd\x98WW\x03\xf4'
p208
ssS'simapp_db_api'
p209
(dp210
g6
(dp211
g8
S'simapp_db_api.html'
p212
sg10
S'simapp/db/api'
p213
sg12
g13
(g14
g15
NtRp214
(dp215
g18
I1
sg19
I0
sg20
I44
sg21
I0
sg22
I0
sg23
I5
sg24
I0
sbssg25
S'\xe5\xde\x0c\xba\xcc\xff-\x0f\xd3oe\xa1q\xd5\x05\x1a'
p216
ssS'util___init__'
p217
(dp218
g6
(dp219
g8
S'util___init__.html'
p220
sg10
S'util/__init__'
p221
sg12
g13
(g14
g15
NtRp222
(dp223
g18
I1
sg19
I0
sg20
I0
sg21
I0
sg22
I0
sg23
I0
sg24
I0
sbssg25
S'\xca\xf5\x9f\x7f\x88\xdfa\x831|T\x1d\xbc}\xa5v'
p224
ssS'macros_templatetags___init__'
p225
(dp226
g6
(dp227
g8
S'macros_templatetags___init__.html'
p228
sg10
S'macros/templatetags/__init__'
p229
sg12
g13
(g14
g15
NtRp230
(dp231
g18
I1
sg19
I0
sg20
I0
sg21
I0
sg22
I0
sg23
I0
sg24
I0
sbssg25
S'\xca\xf5\x9f\x7f\x88\xdfa\x831|T\x1d\xbc}\xa5v'
p232
ssS'simapp_migrations_0001_initial'
p233
(dp234
g6
(dp235
g8
S'simapp_migrations_0001_initial.html'
p236
sg10
S'simapp/migrations/0001_initial'
p237
sg12
g13
(g14
g15
NtRp238
(dp239
g18
I1
sg19
I0
sg20
I8
sg21
I0
sg22
I0
sg23
I0
sg24
I0
sbssg25
S')\xf7\xa4_v\x10\xfc\x1b\x14BZ\xb9\xba\xf2\xe2\xd3'
p240
ssS'simapp_analysis_cyfluxviz_timecourseCSV2cyfluxvizXML'
p241
(dp242
g6
(dp243
g8
S'simapp_analysis_cyfluxviz_timecourseCSV2cyfluxvizXML.html'
p244
sg10
S'simapp/analysis/cyfluxviz/timecourseCSV2cyfluxvizXML'
p245
sg12
g13
(g14
g15
NtRp246
(dp247
g18
I1
sg19
I0
sg20
I111
sg21
I0
sg22
I0
sg23
I111
sg24
I0
sbssg25
S'\x934\x00\xb4\x95\xcf\xed\x0b\xb0\xd33\xc0\xc3>\x88\xe6'
p248
ssS'examples_testdata'
p249
(dp250
g6
(dp251
g8
S'examples_testdata.html'
p252
sg10
S'examples/testdata'
p253
sg12
g13
(g14
g15
NtRp254
(dp255
g18
I1
sg19
I0
sg20
I5
sg21
I0
sg22
I0
sg23
I0
sg24
I0
sbssg25
S'\xbd\xc9rj\x9a4S\x13\xfa86\x1a\x8f\xf6\xe89'
p256
ssS'simapp_admin'
p257
(dp258
g6
(dp259
g8
S'simapp_admin.html'
p260
sg10
S'simapp/admin'
p261
sg12
g13
(g14
g15
NtRp262
(dp263
g18
I1
sg19
I0
sg20
I26
sg21
I0
sg22
I0
sg23
I0
sg24
I0
sbssg25
S'\x9c&\xe8\xa4\x0f\xa5\xf3\xce<\xd3k\xc7\xe2\xbf\x7f\xd0'
p264
ssS'simapp_urls'
p265
(dp266
g6
(dp267
g8
S'simapp_urls.html'
p268
sg10
S'simapp/urls'
p269
sg12
g13
(g14
g15
NtRp270
(dp271
g18
I1
sg19
I0
sg20
I18
sg21
I0
sg22
I0
sg23
I0
sg24
I0
sbssg25
S'\xc3\x9c\xfd\xe7\xe7\xb3:-\x91/\x1a\xf3b\x1e\xf0\xed'
p272
ssS'simapp_analysis_mpi_mpi_example'
p273
(dp274
g6
(dp275
g8
S'simapp_analysis_mpi_mpi_example.html'
p276
sg10
S'simapp/analysis/mpi/mpi_example'
p277
sg12
g13
(g14
g15
NtRp278
(dp279
g18
I1
sg19
I0
sg20
I8
sg21
I0
sg22
I0
sg23
I8
sg24
I0
sbssg25
S'\n\x7f\xacn\xab\xe9g\xfc\x8b\xda\xb2\xce\xb1\x91To'
p280
ssS'multiscalesite___init__'
p281
(dp282
g6
(dp283
g8
S'multiscalesite___init__.html'
p284
sg10
S'multiscalesite/__init__'
p285
sg12
g13
(g14
g15
NtRp286
(dp287
g18
I1
sg19
I0
sg20
I0
sg21
I0
sg22
I0
sg23
I0
sg24
I0
sbssg25
S'\xca\xf5\x9f\x7f\x88\xdfa\x831|T\x1d\xbc}\xa5v'
p288
ssS'multiscalesite_wsgi'
p289
(dp290
g6
(dp291
g8
S'multiscalesite_wsgi.html'
p292
sg10
S'multiscalesite/wsgi'
p293
sg12
g13
(g14
g15
NtRp294
(dp295
g18
I1
sg19
I0
sg20
I4
sg21
I0
sg22
I0
sg23
I4
sg24
I0
sbssg25
S"zb'1\xd8&\x86<\xb6\xfe\x99\xde<b\xd6g"
p296
ssS'simapp_analysis_cyfluxviz___init__'
p297
(dp298
g6
(dp299
g8
S'simapp_analysis_cyfluxviz___init__.html'
p300
sg10
S'simapp/analysis/cyfluxviz/__init__'
p301
sg12
g13
(g14
g15
NtRp302
(dp303
g18
I1
sg19
I0
sg20
I0
sg21
I0
sg22
I0
sg23
I0
sg24
I0
sbssg25
S'\xe5P\x11)^\xf4>1D.\x0e\x0b\xa1\xf8[+'
p304
ssS'simapp_db_manager'
p305
(dp306
g6
(dp307
g8
S'simapp_db_manager.html'
p308
sg10
S'simapp/db/manager'
p309
sg12
g13
(g14
g15
NtRp310
(dp311
g18
I1
sg19
I0
sg20
I50
sg21
I0
sg22
I0
sg23
I50
sg24
I0
sbssg25
S'2~\xe2\x95\x18\xd2\x82\xf3;\x02\xf7j\x86\xb5\x8b\xa1'
p312
ssS'simapp_tests'
p313
(dp314
g6
(dp315
g8
S'simapp_tests.html'
p316
sg10
S'simapp/tests'
p317
sg12
g13
(g14
g15
NtRp318
(dp319
g18
I1
sg19
I0
sg20
I279
sg21
I0
sg22
I0
sg23
I0
sg24
I0
sbssg25
S'--xQ\xbbG>\x12\xc5s\x99\x9d-E\xc3\xd7'
p320
ssS'simapp_analysis_mpi___init__'
p321
(dp322
g6
(dp323
g8
S'simapp_analysis_mpi___init__.html'
p324
sg10
S'simapp/analysis/mpi/__init__'
p325
sg12
g13
(g14
g15
NtRp326
(dp327
g18
I1
sg19
I0
sg20
I0
sg21
I0
sg22
I0
sg23
I0
sg24
I0
sbssg25
S'\x18\x12K-r{\xb6N\x12\x99w\xf5\xa1_\x1f*'
p328
ssS'simapp_templatetags_Parameter_filters'
p329
(dp330
g6
(dp331
g8
S'simapp_templatetags_Parameter_filters.html'
p332
sg10
S'simapp/templatetags/Parameter_filters'
p333
sg12
g13
(g14
g15
NtRp334
(dp335
g18
I1
sg19
I0
sg20
I8
sg21
I0
sg22
I0
sg23
I8
sg24
I0
sbssg25
S">\xa3\x18\xe3Q\xce\xc5;\x05!\x02P+y'\xba"
p336
ssS'simapp_templatetags_Lookup_filters'
p337
(dp338
g6
(dp339
g8
S'simapp_templatetags_Lookup_filters.html'
p340
sg10
S'simapp/templatetags/Lookup_filters'
p341
sg12
g13
(g14
g15
NtRp342
(dp343
g18
I1
sg19
I0
sg20
I4
sg21
I0
sg22
I0
sg23
I1
sg24
I0
sbssg25
S'\xca\xcc\x05\xda\xad\xe89\xd7T\xf9\xc4(\xc4L\xa1)'
p344
ssS'simapp_analysis_prepare_task_batch'
p345
(dp346
g6
(dp347
g8
S'simapp_analysis_prepare_task_batch.html'
p348
sg10
S'simapp/analysis/prepare_task_batch'
p349
sg12
g13
(g14
g15
NtRp350
(dp351
g18
I1
sg19
I0
sg20
I10
sg21
I0
sg22
I0
sg23
I10
sg24
I0
sbssg25
S'\x92O\xbf\xca\xfc\xf7\xd2:\xa6\xe5\x9c\xb7\xf4\xb6\xdf\xc4'
p352
ssS'util_util_classes'
p353
(dp354
g6
(dp355
g8
S'util_util_classes.html'
p356
sg10
S'util/util_classes'
p357
sg12
g13
(g14
g15
NtRp358
(dp359
g18
I1
sg19
I0
sg20
I33
sg21
I0
sg22
I0
sg23
I4
sg24
I0
sbssg25
S'\\=\x9d\x82z\xdf\xdc<\xa3\xbe\xcb\x84\xd1\xed\xb6\xc3'
p360
ssS'_version'
p361
(dp362
g6
(dp363
g8
S'_version.html'
p364
sg10
g361
sg12
g13
(g14
g15
NtRp365
(dp366
g18
I1
sg19
I0
sg20
I1
sg21
I0
sg22
I0
sg23
I1
sg24
I0
sbssg25
S'f\x8c\xbcbTU\x11q\x8b\xd8\x93\xd8\xe9\xcb$\xaa'
p367
ssS'util_biomodels___init__'
p368
(dp369
g6
(dp370
g8
S'util_biomodels___init__.html'
p371
sg10
S'util/biomodels/__init__'
p372
sg12
g13
(g14
g15
NtRp373
(dp374
g18
I1
sg19
I0
sg20
I0
sg21
I0
sg22
I0
sg23
I0
sg24
I0
sbssg25
S'\xe5P\x11)^\xf4>1D.\x0e\x0b\xa1\xf8[+'
p375
ssS'util_miriam_test_miriam'
p376
(dp377
g6
(dp378
g8
S'util_miriam_test_miriam.html'
p379
sg10
S'util/miriam/test_miriam'
p380
sg12
g13
(g14
g15
NtRp381
(dp382
g18
I1
sg19
I0
sg20
I39
sg21
I0
sg22
I0
sg23
I1
sg24
I0
sbssg25
S's\xc9\x01C\x98h9\x04\x06\xd8\xfb\xff\xdb\xe6\xb5.'
p383
ssS'simapp_storage'
p384
(dp385
g6
(dp386
g8
S'simapp_storage.html'
p387
sg10
S'simapp/storage'
p388
sg12
g13
(g14
g15
NtRp389
(dp390
g18
I1
sg19
I0
sg20
I8
sg21
I0
sg22
I0
sg23
I0
sg24
I0
sbssg25
S'\x1dy\x8f/x=sT\x99u{\x85\xec\x0e\\\x9f'
p391
ssS'simapp___init__'
p392
(dp393
g6
(dp394
g8
S'simapp___init__.html'
p395
sg10
S'simapp/__init__'
p396
sg12
g13
(g14
g15
NtRp397
(dp398
g18
I1
sg19
I0
sg20
I0
sg21
I0
sg22
I0
sg23
I0
sg24
I0
sbssg25
S'\xca\xf5\x9f\x7f\x88\xdfa\x831|T\x1d\xbc}\xa5v'
p399
ssS'macros_models'
p400
(dp401
g6
(dp402
g8
S'macros_models.html'
p403
sg10
S'macros/models'
p404
sg12
g13
(g14
g15
NtRp405
(dp406
g18
I1
sg19
I0
sg20
I0
sg21
I0
sg22
I0
sg23
I0
sg24
I0
sbssg25
S'\xca\xf5\x9f\x7f\x88\xdfa\x831|T\x1d\xbc}\xa5v'
p407
ssS'util_miriam_miriam'
p408
(dp409
g6
(dp410
g8
S'util_miriam_miriam.html'
p411
sg10
S'util/miriam/miriam'
p412
sg12
g13
(g14
g15
NtRp413
(dp414
g18
I1
sg19
I0
sg20
I73
sg21
I0
sg22
I0
sg23
I14
sg24
I0
sbssg25
S'\xa4L\x8aC\x83is\xd9\xed;\xb0\xdd\x90\xeb65'
p415
ssS'macros_templatetags_macros'
p416
(dp417
g6
(dp418
g8
S'macros_templatetags_macros.html'
p419
sg10
S'macros/templatetags/macros'
p420
sg12
g13
(g14
g15
NtRp421
(dp422
g18
I1
sg19
I0
sg20
I98
sg21
I0
sg22
I0
sg23
I31
sg24
I0
sbssg25
S'>\x06W\xb9\xb3\x00DX\x1d{RE\xc5\xac\xf7\xef'
p423
ssS'simapp_analysis___init__'
p424
(dp425
g6
(dp426
g8
S'simapp_analysis___init__.html'
p427
sg10
S'simapp/analysis/__init__'
p428
sg12
g13
(g14
g15
NtRp429
(dp430
g18
I1
sg19
I0
sg20
I0
sg21
I0
sg22
I0
sg23
I0
sg24
I0
sbssg25
S'\xca\xf5\x9f\x7f\x88\xdfa\x831|T\x1d\xbc}\xa5v'
p431
ssS'macros___init__'
p432
(dp433
g6
(dp434
g8
S'macros___init__.html'
p435
sg10
S'macros/__init__'
p436
sg12
g13
(g14
g15
NtRp437
(dp438
g18
I1
sg19
I0
sg20
I0
sg21
I0
sg22
I0
sg23
I0
sg24
I0
sbssg25
S'\xca\xf5\x9f\x7f\x88\xdfa\x831|T\x1d\xbc}\xa5v'
p439
ssS'util_sabiork_sabiork'
p440
(dp441
g6
(dp442
g8
S'util_sabiork_sabiork.html'
p443
sg10
S'util/sabiork/sabiork'
p444
sg12
g13
(g14
g15
NtRp445
(dp446
g18
I1
sg19
I0
sg20
I93
sg21
I0
sg22
I0
sg23
I93
sg24
I0
sbssg25
S'\xbf\x9a\rD\xf2\xa7\x047qz\x07:\xc1\xa8\xdc\xf8'
p447
ssS'simapp_migrations_0002_auto_20150519_0804'
p448
(dp449
g6
(dp450
g8
S'simapp_migrations_0002_auto_20150519_0804.html'
p451
sg10
S'simapp/migrations/0002_auto_20150519_0804'
p452
sg12
g13
(g14
g15
NtRp453
(dp454
g18
I1
sg19
I0
sg20
I5
sg21
I0
sg22
I0
sg23
I0
sg24
I0
sbssg25
S'\x96RI\xd3c\xd40\xe0\xacT\x91eg\x1d\xb1['
p455
ssS'simapp_sbml___init__'
p456
(dp457
g6
(dp458
g8
S'simapp_sbml___init__.html'
p459
sg10
S'simapp/sbml/__init__'
p460
sg12
g13
(g14
g15
NtRp461
(dp462
g18
I1
sg19
I0
sg20
I0
sg21
I0
sg22
I0
sg23
I0
sg24
I0
sbssg25
S'\xca\xf5\x9f\x7f\x88\xdfa\x831|T\x1d\xbc}\xa5v'
p463
sssS'version'
p464
S'3.7.1'
p465
sS'settings'
p466
S'\x98\xa8x\xfe"r\xb5K\x98\xb1N\\\x99\x9e\xf3\xe5'
p467
sS'format'
p468
I1
s.